---
triple:          'arm64-apple-darwin'
binary-path:     '/Users/shayan/Documents/Shayan-Documents/My-Programming/C++/USACO & CP/USACO & CP/USACO & CP/USACO Contests/Silver/2022-2023/2023 Feb/run'
relocations:
  - { offset: 0x1D600, size: 0x8, addend: 0x0, symName: __ZStL8__ioinit, symObjAddr: 0x96E5D, symBinAddr: 0x100010000, symSize: 0x0 }
  - { offset: 0x1DDFF, size: 0x8, addend: 0x0, symName: __GLOBAL__sub_I_MooRoute.cpp, symObjAddr: 0x61A4, symBinAddr: 0x1000060F8, symSize: 0x14 }
  - { offset: 0x1DE17, size: 0x8, addend: 0x0, symName: __Z41__static_initialization_and_destruction_0v, symObjAddr: 0x6168, symBinAddr: 0x1000060BC, symSize: 0x3C }
  - { offset: 0x1DE35, size: 0x8, addend: 0x0, symName: __ZSt9__advanceIPP6FlightlEvRT_T0_St26random_access_iterator_tag, symObjAddr: 0x5994, symBinAddr: 0x100006084, symSize: 0x38 }
  - { offset: 0x1DF85, size: 0x8, addend: 0x0, symName: __ZNKSt16reverse_iteratorIP6FlightEdeEv, symObjAddr: 0x5968, symBinAddr: 0x100006058, symSize: 0x2C }
  - { offset: 0x1DFBC, size: 0x8, addend: 0x0, symName: __ZSteqIP6FlightEbRKSt16reverse_iteratorIT_ES6_, symObjAddr: 0x5928, symBinAddr: 0x100006018, symSize: 0x40 }
  - { offset: 0x1E000, size: 0x8, addend: 0x0, symName: __ZSt23__copy_move_backward_a2ILb0EPP6FlightS2_ET1_T0_S4_S3_, symObjAddr: 0x583C, symBinAddr: 0x100005F2C, symSize: 0xEC }
  - { offset: 0x1E18F, size: 0x8, addend: 0x0, symName: __ZSt14__copy_move_a2ILb0EPP6FlightS2_S2_ET2_T0_T1_S3_, symObjAddr: 0x5710, symBinAddr: 0x100005E00, symSize: 0x12C }
  - { offset: 0x1E313, size: 0x8, addend: 0x0, symName: __ZNKSt16reverse_iteratorIP6FlightE4baseEv, symObjAddr: 0x56F8, symBinAddr: 0x100005DE8, symSize: 0x18 }
  - { offset: 0x1E37D, size: 0x8, addend: 0x0, symName: __ZNSt16reverse_iteratorIP6FlightEmmEv, symObjAddr: 0x56D0, symBinAddr: 0x100005DC0, symSize: 0x28 }
  - { offset: 0x1E3A3, size: 0x8, addend: 0x0, symName: __ZStneIP6FlightEbRKSt16reverse_iteratorIT_ES6_, symObjAddr: 0x56A4, symBinAddr: 0x100005D94, symSize: 0x2C }
  - { offset: 0x1E412, size: 0x8, addend: 0x0, symName: __ZNSt16reverse_iteratorIP6FlightEC1ES1_, symObjAddr: 0x5680, symBinAddr: 0x100005D70, symSize: 0x24 }
  - { offset: 0x1E44C, size: 0x8, addend: 0x0, symName: __ZNK9__gnu_cxx5__ops14_Iter_less_valclISt16reverse_iteratorINS_17__normal_iteratorIP6FlightSt6vectorIS5_SaIS5_EEEEES5_EEbT_RT0_, symObjAddr: 0x5654, symBinAddr: 0x100005D44, symSize: 0x2C }
  - { offset: 0x1E4A5, size: 0x8, addend: 0x0, symName: __ZSt9__fill_a1IPiiEvT_S1_RKT0_, symObjAddr: 0x55F4, symBinAddr: 0x100005CE4, symSize: 0x60 }
  - { offset: 0x1E611, size: 0x8, addend: 0x0, symName: __ZStmiIP6FlightS1_EDTmicldtfp0_4baseEcldtfp_4baseEERKSt16reverse_iteratorIT_ERKS3_IT0_E, symObjAddr: 0x55AC, symBinAddr: 0x100005C9C, symSize: 0x48 }
  - { offset: 0x1E65E, size: 0x8, addend: 0x0, symName: __ZSt12__niter_baseIP6FlightEDTcl23__make_reverse_iteratorcl12__niter_basecldtfp_4baseEEEESt16reverse_iteratorIT_E, symObjAddr: 0x5570, symBinAddr: 0x100005C60, symSize: 0x3C }
  - { offset: 0x1E6B6, size: 0x8, addend: 0x0, symName: __ZSt23__copy_move_backward_a2ILb1ESt16reverse_iteratorIP6FlightES3_ET1_T0_S5_S4_, symObjAddr: 0x54CC, symBinAddr: 0x100005BBC, symSize: 0xA4 }
  - { offset: 0x1E79D, size: 0x8, addend: 0x0, symName: __ZNSt16reverse_iteratorIP6FlightEC1ERKS2_, symObjAddr: 0x54A4, symBinAddr: 0x100005B94, symSize: 0x28 }
  - { offset: 0x1E7C8, size: 0x8, addend: 0x0, symName: __ZSt23__make_reverse_iteratorIP6FlightESt16reverse_iteratorIT_ES3_, symObjAddr: 0x5474, symBinAddr: 0x100005B64, symSize: 0x30 }
  - { offset: 0x1E829, size: 0x8, addend: 0x0, symName: __ZSt11__push_heapISt16reverse_iteratorIN9__gnu_cxx17__normal_iteratorIP6FlightSt6vectorIS3_SaIS3_EEEEElS3_NS1_5__ops14_Iter_less_valEEvT_T0_SD_T1_RT2_, symObjAddr: 0x530C, symBinAddr: 0x1000059FC, symSize: 0x168 }
  - { offset: 0x1E975, size: 0x8, addend: 0x0, symName: __ZNSt12_Vector_baseI6FlightSaIS0_EE17_Vector_impl_dataC2Ev, symObjAddr: 0x52E0, symBinAddr: 0x1000059D0, symSize: 0x2C }
  - { offset: 0x1EA33, size: 0x8, addend: 0x0, symName: __ZSt12__miter_baseIPP6FlightET_S3_, symObjAddr: 0x52CC, symBinAddr: 0x1000059BC, symSize: 0x14 }
  - { offset: 0x1EA92, size: 0x8, addend: 0x0, symName: __ZSt12__niter_wrapISt16reverse_iteratorIN9__gnu_cxx17__normal_iteratorIP6FlightSt6vectorIS3_SaIS3_EEEEES0_IS4_EET_SB_T0_, symObjAddr: 0x5250, symBinAddr: 0x100005940, symSize: 0x7C }
  - { offset: 0x1EB2F, size: 0x8, addend: 0x0, symName: __ZSt12__niter_baseIN9__gnu_cxx17__normal_iteratorIP6FlightSt6vectorIS2_SaIS2_EEEEEDTcl23__make_reverse_iteratorcl12__niter_basecldtfp_4baseEEEESt16reverse_iteratorIT_E, symObjAddr: 0x5210, symBinAddr: 0x100005900, symSize: 0x40 }
  - { offset: 0x1EBA8, size: 0x8, addend: 0x0, symName: __ZSt23__make_reverse_iteratorIN9__gnu_cxx17__normal_iteratorIP6FlightSt6vectorIS2_SaIS2_EEEEESt16reverse_iteratorIT_ES9_, symObjAddr: 0x51E0, symBinAddr: 0x1000058D0, symSize: 0x30 }
  - { offset: 0x1EBDB, size: 0x8, addend: 0x0, symName: __ZSt12__miter_baseIN9__gnu_cxx17__normal_iteratorIP6FlightSt6vectorIS2_SaIS2_EEEEET_S8_, symObjAddr: 0x51CC, symBinAddr: 0x1000058BC, symSize: 0x14 }
  - { offset: 0x1EC0E, size: 0x8, addend: 0x0, symName: __ZSt4swapI6FlightENSt9enable_ifIXsrSt6__and_IJSt6__not_ISt15__is_tuple_likeIT_EESt21is_move_constructibleIS5_ESt18is_move_assignableIS5_EEE5valueEvE4typeERS5_SF_, symObjAddr: 0x515C, symBinAddr: 0x10000584C, symSize: 0x70 }
  - { offset: 0x1ECC6, size: 0x8, addend: 0x0, symName: __ZSt13__adjust_heapISt16reverse_iteratorIN9__gnu_cxx17__normal_iteratorIP6FlightSt6vectorIS3_SaIS3_EEEEElS3_NS1_5__ops15_Iter_less_iterEEvT_T0_SD_T1_T2_, symObjAddr: 0x4F2C, symBinAddr: 0x10000561C, symSize: 0x230 }
  - { offset: 0x1EEB0, size: 0x8, addend: 0x0, symName: __ZNSt12_Vector_baseI6FlightSaIS0_EE12_Vector_implC1Ev, symObjAddr: 0x4EF4, symBinAddr: 0x1000055E4, symSize: 0x38 }
  - { offset: 0x1EF5C, size: 0x8, addend: 0x0, symName: __ZSt4copyIPP6FlightS2_ET0_T_S4_S3_, symObjAddr: 0x4E5C, symBinAddr: 0x10000554C, symSize: 0x98 }
  - { offset: 0x1F0F1, size: 0x8, addend: 0x0, symName: __ZNSt15__new_allocatorI6FlightE10deallocateEPS0_m, symObjAddr: 0x4E20, symBinAddr: 0x100005510, symSize: 0x3C }
  - { offset: 0x1F13B, size: 0x8, addend: 0x0, symName: __ZNSt15__new_allocatorIP6FlightE8allocateEmPKv, symObjAddr: 0x4DA4, symBinAddr: 0x100005494, symSize: 0x7C }
  - { offset: 0x1F1BC, size: 0x8, addend: 0x0, symName: __ZNK9__gnu_cxx5__ops14_Val_less_iterclI6FlightSt16reverse_iteratorINS_17__normal_iteratorIPS3_St6vectorIS3_SaIS3_EEEEEEEbRT_T0_, symObjAddr: 0x4D74, symBinAddr: 0x100005464, symSize: 0x30 }
  - { offset: 0x1F263, size: 0x8, addend: 0x0, symName: __ZSt12__miter_baseIN9__gnu_cxx17__normal_iteratorIP6FlightSt6vectorIS2_SaIS2_EEEEEDTcl23__make_reverse_iteratorcl12__miter_basecldtfp_4baseEEEESt16reverse_iteratorIT_E, symObjAddr: 0x4D3C, symBinAddr: 0x10000542C, symSize: 0x38 }
  - { offset: 0x1F2D3, size: 0x8, addend: 0x0, symName: __ZSt9iter_swapISt16reverse_iteratorIN9__gnu_cxx17__normal_iteratorIP6FlightSt6vectorIS3_SaIS3_EEEEES9_EvT_T0_, symObjAddr: 0x4CF8, symBinAddr: 0x1000053E8, symSize: 0x44 }
  - { offset: 0x1F348, size: 0x8, addend: 0x0, symName: __ZNSt16reverse_iteratorIN9__gnu_cxx17__normal_iteratorIP6FlightSt6vectorIS2_SaIS2_EEEEEmmEv, symObjAddr: 0x4CC8, symBinAddr: 0x1000053B8, symSize: 0x30 }
  - { offset: 0x1F392, size: 0x8, addend: 0x0, symName: __ZSt10__pop_heapISt16reverse_iteratorIN9__gnu_cxx17__normal_iteratorIP6FlightSt6vectorIS3_SaIS3_EEEEENS1_5__ops15_Iter_less_iterEEvT_SC_SC_RT0_, symObjAddr: 0x4C08, symBinAddr: 0x1000052F8, symSize: 0xC0 }
  - { offset: 0x1F496, size: 0x8, addend: 0x0, symName: __ZSt11__make_heapISt16reverse_iteratorIN9__gnu_cxx17__normal_iteratorIP6FlightSt6vectorIS3_SaIS3_EEEEENS1_5__ops15_Iter_less_iterEEvT_SC_RT0_, symObjAddr: 0x4B04, symBinAddr: 0x1000051F4, symSize: 0x104 }
  - { offset: 0x1F5D1, size: 0x8, addend: 0x0, symName: __ZSt14__relocate_a_1I6FlightS0_ENSt9enable_ifIXsrSt24__is_bitwise_relocatableIT_vE5valueEPS3_E4typeES5_S5_S5_RSaIT0_E, symObjAddr: 0x4A74, symBinAddr: 0x100005164, symSize: 0x90 }
  - { offset: 0x1F674, size: 0x8, addend: 0x0, symName: __ZNSt15__new_allocatorI6FlightE8allocateEmPKv, symObjAddr: 0x49E4, symBinAddr: 0x1000050D4, symSize: 0x90 }
  - { offset: 0x1F6EA, size: 0x8, addend: 0x0, symName: __ZNKSt12_Vector_baseI6FlightSaIS0_EE19_M_get_Tp_allocatorEv, symObjAddr: 0x49D0, symBinAddr: 0x1000050C0, symSize: 0x14 }
  - { offset: 0x1F710, size: 0x8, addend: 0x0, symName: __ZNSt6vectorI6FlightSaIS0_EE11_S_max_sizeERKS1_, symObjAddr: 0x4974, symBinAddr: 0x100005064, symSize: 0x5C }
  - { offset: 0x1F814, size: 0x8, addend: 0x0, symName: __ZSt10_ConstructIiJEEvPT_DpOT0_, symObjAddr: 0x4928, symBinAddr: 0x100005018, symSize: 0x4C }
  - { offset: 0x1F858, size: 0x8, addend: 0x0, symName: __ZNSt19_UninitDestroyGuardIPivE7releaseEv, symObjAddr: 0x490C, symBinAddr: 0x100004FFC, symSize: 0x1C }
  - { offset: 0x1F87E, size: 0x8, addend: 0x0, symName: __ZSt10_ConstructIiJRKiEEvPT_DpOT0_, symObjAddr: 0x48AC, symBinAddr: 0x100004F9C, symSize: 0x60 }
  - { offset: 0x1F92D, size: 0x8, addend: 0x0, symName: __ZNSt19_UninitDestroyGuardIPivED1Ev, symObjAddr: 0x4854, symBinAddr: 0x100004F44, symSize: 0x58 }
  - { offset: 0x1F97A, size: 0x8, addend: 0x0, symName: __ZNSt19_UninitDestroyGuardIPivEC1ERS0_, symObjAddr: 0x4820, symBinAddr: 0x100004F10, symSize: 0x34 }
  - { offset: 0x1F9A9, size: 0x8, addend: 0x0, symName: __ZNSt15__new_allocatorIiE8allocateEmPKv, symObjAddr: 0x47A4, symBinAddr: 0x100004E94, symSize: 0x7C }
  - { offset: 0x1FA4F, size: 0x8, addend: 0x0, symName: __ZNSt12_Vector_baseI6FlightSaIS0_EED2Ev, symObjAddr: 0x4748, symBinAddr: 0x100004E38, symSize: 0x5C }
  - { offset: 0x1FA75, size: 0x8, addend: 0x0, symName: __ZNSt19_UninitDestroyGuardIPSt6vectorI6FlightSaIS1_EEvE7releaseEv, symObjAddr: 0x472C, symBinAddr: 0x100004E1C, symSize: 0x1C }
  - { offset: 0x1FA9B, size: 0x8, addend: 0x0, symName: __ZSt10_ConstructISt6vectorI6FlightSaIS1_EEJEEvPT_DpOT0_, symObjAddr: 0x46CC, symBinAddr: 0x100004DBC, symSize: 0x60 }
  - { offset: 0x1FAF9, size: 0x8, addend: 0x0, symName: __ZNSt6vectorI6FlightSaIS0_EEC1Ev, symObjAddr: 0x46AC, symBinAddr: 0x100004D9C, symSize: 0x20 }
  - { offset: 0x1FB39, size: 0x8, addend: 0x0, symName: __ZNSt12_Vector_baseI6FlightSaIS0_EEC2Ev, symObjAddr: 0x468C, symBinAddr: 0x100004D7C, symSize: 0x20 }
  - { offset: 0x1FB7C, size: 0x8, addend: 0x0, symName: __ZNSt12_Vector_baseI6FlightSaIS0_EE12_Vector_implD1Ev, symObjAddr: 0x4660, symBinAddr: 0x100004D50, symSize: 0x2C }
  - { offset: 0x1FBDF, size: 0x8, addend: 0x0, symName: __ZNSt19_UninitDestroyGuardIPSt6vectorI6FlightSaIS1_EEvED1Ev, symObjAddr: 0x4608, symBinAddr: 0x100004CF8, symSize: 0x58 }
  - { offset: 0x1FC2C, size: 0x8, addend: 0x0, symName: __ZNSt19_UninitDestroyGuardIPSt6vectorI6FlightSaIS1_EEvEC1ERS4_, symObjAddr: 0x45D4, symBinAddr: 0x100004CC4, symSize: 0x34 }
  - { offset: 0x1FC5B, size: 0x8, addend: 0x0, symName: __ZNSt15__new_allocatorISt6vectorI6FlightSaIS1_EEE8allocateEmPKv, symObjAddr: 0x4544, symBinAddr: 0x100004C34, symSize: 0x90 }
  - { offset: 0x1FCE7, size: 0x8, addend: 0x0, symName: __ZNSt5dequeI6FlightSaIS0_EE17_M_reallocate_mapEmb, symObjAddr: 0x423C, symBinAddr: 0x10000492C, symSize: 0x308 }
  - { offset: 0x1FEC3, size: 0x8, addend: 0x0, symName: __ZNSt5dequeI6FlightSaIS0_EE11_S_max_sizeERKS1_, symObjAddr: 0x41E4, symBinAddr: 0x1000048D4, symSize: 0x58 }
  - { offset: 0x1FF80, size: 0x8, addend: 0x0, symName: __ZStmiRKSt15_Deque_iteratorI6FlightRS0_PS0_ES5_, symObjAddr: 0x4138, symBinAddr: 0x100004828, symSize: 0xAC }
  - { offset: 0x1FFBB, size: 0x8, addend: 0x0, symName: __ZSt8_DestroyIP6FlightEvT_S2_, symObjAddr: 0x4120, symBinAddr: 0x100004810, symSize: 0x18 }
  - { offset: 0x20001, size: 0x8, addend: 0x0, symName: __ZNSt15__new_allocatorIP6FlightE10deallocateEPS1_m, symObjAddr: 0x40F0, symBinAddr: 0x1000047E0, symSize: 0x30 }
  - { offset: 0x20065, size: 0x8, addend: 0x0, symName: __ZNSt15__new_allocatorIP6FlightED2Ev, symObjAddr: 0x40DC, symBinAddr: 0x1000047CC, symSize: 0x14 }
  - { offset: 0x200AF, size: 0x8, addend: 0x0, symName: __ZNKSt11_Deque_baseI6FlightSaIS0_EE19_M_get_Tp_allocatorEv, symObjAddr: 0x40C8, symBinAddr: 0x1000047B8, symSize: 0x14 }
  - { offset: 0x20107, size: 0x8, addend: 0x0, symName: __ZNSt15_Deque_iteratorI6FlightRS0_PS0_E14_S_buffer_sizeEv, symObjAddr: 0x40B0, symBinAddr: 0x1000047A0, symSize: 0x18 }
  - { offset: 0x20161, size: 0x8, addend: 0x0, symName: __ZNSt15_Deque_iteratorI6FlightRS0_PS0_EC1Ev, symObjAddr: 0x407C, symBinAddr: 0x10000476C, symSize: 0x34 }
  - { offset: 0x20199, size: 0x8, addend: 0x0, symName: __ZSt25__unguarded_linear_insertISt16reverse_iteratorIN9__gnu_cxx17__normal_iteratorIP6FlightSt6vectorIS3_SaIS3_EEEEENS1_5__ops14_Val_less_iterEEvT_T0_, symObjAddr: 0x3F90, symBinAddr: 0x100004680, symSize: 0xEC }
  - { offset: 0x202DB, size: 0x8, addend: 0x0, symName: __ZNK9__gnu_cxx5__ops15_Iter_less_iterclISt16reverse_iteratorINS_17__normal_iteratorIP6FlightSt6vectorIS5_SaIS5_EEEEESB_EEbT_T0_, symObjAddr: 0x3F4C, symBinAddr: 0x10000463C, symSize: 0x44 }
  - { offset: 0x20339, size: 0x8, addend: 0x0, symName: __ZNSt16reverse_iteratorIN9__gnu_cxx17__normal_iteratorIP6FlightSt6vectorIS2_SaIS2_EEEEEppEv, symObjAddr: 0x3F1C, symBinAddr: 0x10000460C, symSize: 0x30 }
  - { offset: 0x20383, size: 0x8, addend: 0x0, symName: __ZSt21__unguarded_partitionISt16reverse_iteratorIN9__gnu_cxx17__normal_iteratorIP6FlightSt6vectorIS3_SaIS3_EEEEENS1_5__ops15_Iter_less_iterEET_SC_SC_SC_T0_, symObjAddr: 0x3E00, symBinAddr: 0x1000044F0, symSize: 0x11C }
  - { offset: 0x203F7, size: 0x8, addend: 0x0, symName: __ZStltIN9__gnu_cxx17__normal_iteratorIP6FlightSt6vectorIS2_SaIS2_EEEEEbRKSt16reverse_iteratorIT_ESC_, symObjAddr: 0x3DA4, symBinAddr: 0x100004494, symSize: 0x5C }
  - { offset: 0x204AA, size: 0x8, addend: 0x0, symName: __ZSt22__move_median_to_firstISt16reverse_iteratorIN9__gnu_cxx17__normal_iteratorIP6FlightSt6vectorIS3_SaIS3_EEEEENS1_5__ops15_Iter_less_iterEEvT_SC_SC_SC_T0_, symObjAddr: 0x3B8C, symBinAddr: 0x10000427C, symSize: 0x218 }
  - { offset: 0x20532, size: 0x8, addend: 0x0, symName: __ZNKSt16reverse_iteratorIN9__gnu_cxx17__normal_iteratorIP6FlightSt6vectorIS2_SaIS2_EEEEEmiEl, symObjAddr: 0x3B14, symBinAddr: 0x100004204, symSize: 0x78 }
  - { offset: 0x205BD, size: 0x8, addend: 0x0, symName: __ZSt11__sort_heapISt16reverse_iteratorIN9__gnu_cxx17__normal_iteratorIP6FlightSt6vectorIS3_SaIS3_EEEEENS1_5__ops15_Iter_less_iterEEvT_SC_RT0_, symObjAddr: 0x3A88, symBinAddr: 0x100004178, symSize: 0x8C }
  - { offset: 0x2061D, size: 0x8, addend: 0x0, symName: __ZSt13__heap_selectISt16reverse_iteratorIN9__gnu_cxx17__normal_iteratorIP6FlightSt6vectorIS3_SaIS3_EEEEENS1_5__ops15_Iter_less_iterEEvT_SC_SC_T0_, symObjAddr: 0x399C, symBinAddr: 0x10000408C, symSize: 0xEC }
  - { offset: 0x206F7, size: 0x8, addend: 0x0, symName: __ZNKSt6vectorI6FlightSaIS0_EE3endEv, symObjAddr: 0x396C, symBinAddr: 0x10000405C, symSize: 0x30 }
  - { offset: 0x2074B, size: 0x8, addend: 0x0, symName: __ZNKSt6vectorI6FlightSaIS0_EE5beginEv, symObjAddr: 0x3940, symBinAddr: 0x100004030, symSize: 0x2C }
  - { offset: 0x2079B, size: 0x8, addend: 0x0, symName: __ZSt12__relocate_aIP6FlightS1_SaIS0_EET0_T_S4_S3_RT1_, symObjAddr: 0x38F4, symBinAddr: 0x100003FE4, symSize: 0x4C }
  - { offset: 0x20883, size: 0x8, addend: 0x0, symName: __ZNSt12_Vector_baseI6FlightSaIS0_EE13_M_deallocateEPS0_m, symObjAddr: 0x389C, symBinAddr: 0x100003F8C, symSize: 0x58 }
  - { offset: 0x20929, size: 0x8, addend: 0x0, symName: __ZNKSt6vectorI6FlightSaIS0_EE8max_sizeEv, symObjAddr: 0x387C, symBinAddr: 0x100003F6C, symSize: 0x20 }
  - { offset: 0x2094F, size: 0x8, addend: 0x0, symName: __ZNSt27__uninitialized_default_n_1ILb1EE18__uninit_default_nIPimEET_S3_T0_, symObjAddr: 0x3788, symBinAddr: 0x100003E78, symSize: 0xF4 }
  - { offset: 0x20ABC, size: 0x8, addend: 0x0, symName: __ZSt18__do_uninit_fill_nIPimiET_S1_T0_RKT1_, symObjAddr: 0x36F8, symBinAddr: 0x100003DE8, symSize: 0x90 }
  - { offset: 0x20B77, size: 0x8, addend: 0x0, symName: __ZNSt15__new_allocatorIiE10deallocateEPim, symObjAddr: 0x36C8, symBinAddr: 0x100003DB8, symSize: 0x30 }
  - { offset: 0x20C15, size: 0x8, addend: 0x0, symName: __ZNSt6vectorI6FlightSaIS0_EED1Ev, symObjAddr: 0x366C, symBinAddr: 0x100003D5C, symSize: 0x5C }
  - { offset: 0x20C6D, size: 0x8, addend: 0x0, symName: __ZNSt27__uninitialized_default_n_1ILb0EE18__uninit_default_nIPSt6vectorI6FlightSaIS3_EEmEET_S7_T0_, symObjAddr: 0x35F0, symBinAddr: 0x100003CE0, symSize: 0x7C }
  - { offset: 0x20CF3, size: 0x8, addend: 0x0, symName: __ZNSt15__new_allocatorISt6vectorI6FlightSaIS1_EEE10deallocateEPS3_m, symObjAddr: 0x35B4, symBinAddr: 0x100003CA4, symSize: 0x3C }
  - { offset: 0x20DA3, size: 0x8, addend: 0x0, symName: __ZNSt11_Deque_baseI6FlightSaIS0_EE16_M_allocate_nodeEv, symObjAddr: 0x3570, symBinAddr: 0x100003C60, symSize: 0x44 }
  - { offset: 0x20DFA, size: 0x8, addend: 0x0, symName: __ZNSt5dequeI6FlightSaIS0_EE22_M_reserve_map_at_backEm, symObjAddr: 0x3510, symBinAddr: 0x100003C00, symSize: 0x60 }
  - { offset: 0x20E35, size: 0x8, addend: 0x0, symName: __ZNKSt5dequeI6FlightSaIS0_EE8max_sizeEv, symObjAddr: 0x34F0, symBinAddr: 0x100003BE0, symSize: 0x20 }
  - { offset: 0x20E5F, size: 0x8, addend: 0x0, symName: __ZNKSt5dequeI6FlightSaIS0_EE4sizeEv, symObjAddr: 0x348C, symBinAddr: 0x100003B7C, symSize: 0x64 }
  - { offset: 0x20F87, size: 0x8, addend: 0x0, symName: __ZNKSt11_Deque_baseI6FlightSaIS0_EE20_M_get_map_allocatorEv, symObjAddr: 0x3444, symBinAddr: 0x100003B34, symSize: 0x48 }
  - { offset: 0x21001, size: 0x8, addend: 0x0, symName: __ZNSt11_Deque_baseI6FlightSaIS0_EE18_M_deallocate_nodeEPS0_, symObjAddr: 0x33EC, symBinAddr: 0x100003ADC, symSize: 0x58 }
  - { offset: 0x21072, size: 0x8, addend: 0x0, symName: __ZNSt15_Deque_iteratorI6FlightRS0_PS0_E11_M_set_nodeEPS2_, symObjAddr: 0x3380, symBinAddr: 0x100003A70, symSize: 0x6C }
  - { offset: 0x210AD, size: 0x8, addend: 0x0, symName: __ZNSt11_Deque_baseI6FlightSaIS0_EE15_M_create_nodesEPPS0_S4_, symObjAddr: 0x32F4, symBinAddr: 0x1000039E4, symSize: 0x8C }
  - { offset: 0x2110A, size: 0x8, addend: 0x0, symName: __ZNSt11_Deque_baseI6FlightSaIS0_EE15_M_allocate_mapEm, symObjAddr: 0x3274, symBinAddr: 0x100003964, symSize: 0x80 }
  - { offset: 0x211DC, size: 0x8, addend: 0x0, symName: __ZNSt15__new_allocatorI6FlightED2Ev, symObjAddr: 0x3260, symBinAddr: 0x100003950, symSize: 0x14 }
  - { offset: 0x2121C, size: 0x8, addend: 0x0, symName: __ZNSt11_Deque_baseI6FlightSaIS0_EE16_Deque_impl_dataC2Ev, symObjAddr: 0x3220, symBinAddr: 0x100003910, symSize: 0x40 }
  - { offset: 0x21254, size: 0x8, addend: 0x0, symName: __ZSt26__unguarded_insertion_sortISt16reverse_iteratorIN9__gnu_cxx17__normal_iteratorIP6FlightSt6vectorIS3_SaIS3_EEEEENS1_5__ops15_Iter_less_iterEEvT_SC_T0_, symObjAddr: 0x31A4, symBinAddr: 0x100003894, symSize: 0x7C }
  - { offset: 0x212D8, size: 0x8, addend: 0x0, symName: __ZSt16__insertion_sortISt16reverse_iteratorIN9__gnu_cxx17__normal_iteratorIP6FlightSt6vectorIS3_SaIS3_EEEEENS1_5__ops15_Iter_less_iterEEvT_SC_T0_, symObjAddr: 0x2EFC, symBinAddr: 0x1000035EC, symSize: 0x2A8 }
  - { offset: 0x2147B, size: 0x8, addend: 0x0, symName: __ZNKSt16reverse_iteratorIN9__gnu_cxx17__normal_iteratorIP6FlightSt6vectorIS2_SaIS2_EEEEEdeEv, symObjAddr: 0x2EC4, symBinAddr: 0x1000035B4, symSize: 0x38 }
  - { offset: 0x214FB, size: 0x8, addend: 0x0, symName: __ZNKSt16reverse_iteratorIN9__gnu_cxx17__normal_iteratorIP6FlightSt6vectorIS2_SaIS2_EEEEEplEl, symObjAddr: 0x2E48, symBinAddr: 0x100003538, symSize: 0x7C }
  - { offset: 0x21586, size: 0x8, addend: 0x0, symName: __ZSt27__unguarded_partition_pivotISt16reverse_iteratorIN9__gnu_cxx17__normal_iteratorIP6FlightSt6vectorIS3_SaIS3_EEEEENS1_5__ops15_Iter_less_iterEET_SC_SC_T0_, symObjAddr: 0x2D4C, symBinAddr: 0x10000343C, symSize: 0xFC }
  - { offset: 0x215FA, size: 0x8, addend: 0x0, symName: __ZSt14__partial_sortISt16reverse_iteratorIN9__gnu_cxx17__normal_iteratorIP6FlightSt6vectorIS3_SaIS3_EEEEENS1_5__ops15_Iter_less_iterEEvT_SC_SC_T0_, symObjAddr: 0x2CC0, symBinAddr: 0x1000033B0, symSize: 0x8C }
  - { offset: 0x21696, size: 0x8, addend: 0x0, symName: __ZNKSt6vectorI6FlightSaIS0_EE5emptyEv, symObjAddr: 0x2C68, symBinAddr: 0x100003358, symSize: 0x58 }
  - { offset: 0x2172F, size: 0x8, addend: 0x0, symName: __ZNSt12_Vector_baseI6FlightSaIS0_EE19_M_get_Tp_allocatorEv, symObjAddr: 0x2C54, symBinAddr: 0x100003344, symSize: 0x14 }
  - { offset: 0x21755, size: 0x8, addend: 0x0, symName: __ZNSt6vectorI6FlightSaIS0_EE11_S_relocateEPS0_S3_S3_RS1_, symObjAddr: 0x2C20, symBinAddr: 0x100003310, symSize: 0x34 }
  - { offset: 0x217EE, size: 0x8, addend: 0x0, symName: __ZNSt6vectorI6FlightSaIS0_EE12_Guard_allocD1Ev, symObjAddr: 0x2BD4, symBinAddr: 0x1000032C4, symSize: 0x4C }
  - { offset: 0x21858, size: 0x8, addend: 0x0, symName: __ZNSt6vectorI6FlightSaIS0_EE12_Guard_allocC1EPS0_mRSt12_Vector_baseIS0_S1_E, symObjAddr: 0x2B90, symBinAddr: 0x100003280, symSize: 0x44 }
  - { offset: 0x21899, size: 0x8, addend: 0x0, symName: __ZNSt12_Vector_baseI6FlightSaIS0_EE11_M_allocateEm, symObjAddr: 0x2B40, symBinAddr: 0x100003230, symSize: 0x50 }
  - { offset: 0x21901, size: 0x8, addend: 0x0, symName: __ZNKSt6vectorI6FlightSaIS0_EE12_M_check_lenEmPKc, symObjAddr: 0x2A70, symBinAddr: 0x100003160, symSize: 0xD0 }
  - { offset: 0x219A6, size: 0x8, addend: 0x0, symName: __ZSt25__uninitialized_default_nIPimET_S1_T0_, symObjAddr: 0x2A44, symBinAddr: 0x100003134, symSize: 0x2C }
  - { offset: 0x21A04, size: 0x8, addend: 0x0, symName: __ZSt20uninitialized_fill_nIPimiET_S1_T0_RKT1_, symObjAddr: 0x2A18, symBinAddr: 0x100003108, symSize: 0x2C }
  - { offset: 0x21AA1, size: 0x8, addend: 0x0, symName: __ZNSt12_Vector_baseIiSaIiEE11_M_allocateEm, symObjAddr: 0x29C8, symBinAddr: 0x1000030B8, symSize: 0x50 }
  - { offset: 0x21B23, size: 0x8, addend: 0x0, symName: __ZNSt12_Vector_baseIiSaIiEE17_Vector_impl_dataC2Ev, symObjAddr: 0x299C, symBinAddr: 0x10000308C, symSize: 0x2C }
  - { offset: 0x21B76, size: 0x8, addend: 0x0, symName: __ZSt8_DestroyISt6vectorI6FlightSaIS1_EEEvPT_, symObjAddr: 0x297C, symBinAddr: 0x10000306C, symSize: 0x20 }
  - { offset: 0x21BC6, size: 0x8, addend: 0x0, symName: __ZSt25__uninitialized_default_nIPSt6vectorI6FlightSaIS1_EEmET_S5_T0_, symObjAddr: 0x2950, symBinAddr: 0x100003040, symSize: 0x2C }
  - { offset: 0x21C5A, size: 0x8, addend: 0x0, symName: __ZNSt12_Vector_baseISt6vectorI6FlightSaIS1_EESaIS3_EE11_M_allocateEm, symObjAddr: 0x2900, symBinAddr: 0x100002FF0, symSize: 0x50 }
  - { offset: 0x21CDC, size: 0x8, addend: 0x0, symName: __ZNSt12_Vector_baseISt6vectorI6FlightSaIS1_EESaIS3_EE17_Vector_impl_dataC2Ev, symObjAddr: 0x28D4, symBinAddr: 0x100002FC4, symSize: 0x2C }
  - { offset: 0x21D2F, size: 0x8, addend: 0x0, symName: __ZSt13__countl_zeroImEiT_, symObjAddr: 0x28B4, symBinAddr: 0x100002FA4, symSize: 0x20 }
  - { offset: 0x21D75, size: 0x8, addend: 0x0, symName: __ZNSt5dequeI6FlightSaIS0_EE16_M_pop_front_auxEv, symObjAddr: 0x2820, symBinAddr: 0x100002F10, symSize: 0x94 }
  - { offset: 0x21E26, size: 0x8, addend: 0x0, symName: __ZNKSt15_Deque_iteratorI6FlightRS0_PS0_EdeEv, symObjAddr: 0x2808, symBinAddr: 0x100002EF8, symSize: 0x18 }
  - { offset: 0x21E4C, size: 0x8, addend: 0x0, symName: __ZSteqRKSt15_Deque_iteratorI6FlightRS0_PS0_ES5_, symObjAddr: 0x27D8, symBinAddr: 0x100002EC8, symSize: 0x30 }
  - { offset: 0x21E8B, size: 0x8, addend: 0x0, symName: __ZNSt5dequeI6FlightSaIS0_EE16_M_push_back_auxIJRKS0_EEEvDpOT_, symObjAddr: 0x2688, symBinAddr: 0x100002D78, symSize: 0x150 }
  - { offset: 0x2201D, size: 0x8, addend: 0x0, symName: __ZNSt15_Deque_iteratorI6FlightRS0_PS0_EC1ERKS3_, symObjAddr: 0x2630, symBinAddr: 0x100002D20, symSize: 0x58 }
  - { offset: 0x2204C, size: 0x8, addend: 0x0, symName: __ZNSt11_Deque_baseI6FlightSaIS0_EE17_M_deallocate_mapEPPS0_m, symObjAddr: 0x25D0, symBinAddr: 0x100002CC0, symSize: 0x60 }
  - { offset: 0x220FD, size: 0x8, addend: 0x0, symName: __ZNSt11_Deque_baseI6FlightSaIS0_EE16_M_destroy_nodesEPPS0_S4_, symObjAddr: 0x2570, symBinAddr: 0x100002C60, symSize: 0x60 }
  - { offset: 0x2216D, size: 0x8, addend: 0x0, symName: __ZNSt11_Deque_baseI6FlightSaIS0_EE17_M_initialize_mapEm, symObjAddr: 0x23D8, symBinAddr: 0x100002AC8, symSize: 0x198 }
  - { offset: 0x2220B, size: 0x8, addend: 0x0, symName: __ZNSt11_Deque_baseI6FlightSaIS0_EE11_Deque_implC1Ev, symObjAddr: 0x23A0, symBinAddr: 0x100002A90, symSize: 0x38 }
  - { offset: 0x22274, size: 0x8, addend: 0x0, symName: __ZSt22__final_insertion_sortISt16reverse_iteratorIN9__gnu_cxx17__normal_iteratorIP6FlightSt6vectorIS3_SaIS3_EEEEENS1_5__ops15_Iter_less_iterEEvT_SC_T0_, symObjAddr: 0x22C0, symBinAddr: 0x1000029B0, symSize: 0xE0 }
  - { offset: 0x222D5, size: 0x8, addend: 0x0, symName: __ZSt16__introsort_loopISt16reverse_iteratorIN9__gnu_cxx17__normal_iteratorIP6FlightSt6vectorIS3_SaIS3_EEEEElNS1_5__ops15_Iter_less_iterEEvT_SC_T0_T1_, symObjAddr: 0x21A8, symBinAddr: 0x100002898, symSize: 0x118 }
  - { offset: 0x223AD, size: 0x8, addend: 0x0, symName: __ZSt4__lgIlET_S0_, symObjAddr: 0x2184, symBinAddr: 0x100002874, symSize: 0x24 }
  - { offset: 0x2241A, size: 0x8, addend: 0x0, symName: __ZNSt6vectorI6FlightSaIS0_EE4backEv, symObjAddr: 0x20DC, symBinAddr: 0x1000027CC, symSize: 0xA8 }
  - { offset: 0x224D1, size: 0x8, addend: 0x0, symName: __ZNSt6vectorI6FlightSaIS0_EE17_M_realloc_appendIJS0_EEEvDpOT_, symObjAddr: 0x1E9C, symBinAddr: 0x10000258C, symSize: 0x240 }
  - { offset: 0x22783, size: 0x8, addend: 0x0, symName: __ZSt27__uninitialized_default_n_aIPimiET_S1_T0_RSaIT1_E, symObjAddr: 0x1E74, symBinAddr: 0x100002564, symSize: 0x28 }
  - { offset: 0x227E2, size: 0x8, addend: 0x0, symName: __ZSt8_DestroyIPiEvT_S1_, symObjAddr: 0x1E5C, symBinAddr: 0x10000254C, symSize: 0x18 }
  - { offset: 0x22824, size: 0x8, addend: 0x0, symName: __ZSt24__uninitialized_fill_n_aIPimiiET_S1_T0_RKT1_RSaIT2_E, symObjAddr: 0x1E2C, symBinAddr: 0x10000251C, symSize: 0x30 }
  - { offset: 0x228A1, size: 0x8, addend: 0x0, symName: __ZNSt12_Vector_baseIiSaIiEE13_M_deallocateEPim, symObjAddr: 0x1DD4, symBinAddr: 0x1000024C4, symSize: 0x58 }
  - { offset: 0x22923, size: 0x8, addend: 0x0, symName: __ZNSt12_Vector_baseIiSaIiEE17_M_create_storageEm, symObjAddr: 0x1D74, symBinAddr: 0x100002464, symSize: 0x60 }
  - { offset: 0x22985, size: 0x8, addend: 0x0, symName: __ZNSt12_Vector_baseIiSaIiEE12_Vector_implC1ERKS0_, symObjAddr: 0x1D28, symBinAddr: 0x100002418, symSize: 0x4C }
  - { offset: 0x22A2B, size: 0x8, addend: 0x0, symName: __ZNSt6vectorIiSaIiEE11_S_max_sizeERKS0_, symObjAddr: 0x1CD4, symBinAddr: 0x1000023C4, symSize: 0x54 }
  - { offset: 0x22AE2, size: 0x8, addend: 0x0, symName: __ZSt8_DestroyIPSt6vectorI6FlightSaIS1_EEEvT_S5_, symObjAddr: 0x1C84, symBinAddr: 0x100002374, symSize: 0x50 }
  - { offset: 0x22B47, size: 0x8, addend: 0x0, symName: __ZSt27__uninitialized_default_n_aIPSt6vectorI6FlightSaIS1_EEmS3_ET_S5_T0_RSaIT1_E, symObjAddr: 0x1C5C, symBinAddr: 0x10000234C, symSize: 0x28 }
  - { offset: 0x22BAA, size: 0x8, addend: 0x0, symName: __ZNSt12_Vector_baseISt6vectorI6FlightSaIS1_EESaIS3_EE13_M_deallocateEPS3_m, symObjAddr: 0x1C04, symBinAddr: 0x1000022F4, symSize: 0x58 }
  - { offset: 0x22C2C, size: 0x8, addend: 0x0, symName: __ZNSt12_Vector_baseISt6vectorI6FlightSaIS1_EESaIS3_EE17_M_create_storageEm, symObjAddr: 0x1B98, symBinAddr: 0x100002288, symSize: 0x6C }
  - { offset: 0x22C8E, size: 0x8, addend: 0x0, symName: __ZNSt12_Vector_baseISt6vectorI6FlightSaIS1_EESaIS3_EE12_Vector_implC1ERKS4_, symObjAddr: 0x1B4C, symBinAddr: 0x10000223C, symSize: 0x4C }
  - { offset: 0x22D34, size: 0x8, addend: 0x0, symName: __ZNSt6vectorIS_I6FlightSaIS0_EESaIS2_EE11_S_max_sizeERKS3_, symObjAddr: 0x1AF0, symBinAddr: 0x1000021E0, symSize: 0x5C }
  - { offset: 0x22DEB, size: 0x8, addend: 0x0, symName: __ZSt11__bit_widthImEiT_, symObjAddr: 0x1AC0, symBinAddr: 0x1000021B0, symSize: 0x30 }
  - { offset: 0x22E57, size: 0x8, addend: 0x0, symName: __ZNSt5dequeI6FlightSaIS0_EE9pop_frontEv, symObjAddr: 0x19F4, symBinAddr: 0x1000020E4, symSize: 0xCC }
  - { offset: 0x22EF6, size: 0x8, addend: 0x0, symName: __ZNSt5dequeI6FlightSaIS0_EE5frontEv, symObjAddr: 0x1984, symBinAddr: 0x100002074, symSize: 0x70 }
  - { offset: 0x22F3B, size: 0x8, addend: 0x0, symName: __ZNKSt5dequeI6FlightSaIS0_EE5emptyEv, symObjAddr: 0x1954, symBinAddr: 0x100002044, symSize: 0x30 }
  - { offset: 0x22F65, size: 0x8, addend: 0x0, symName: __ZNSt5dequeI6FlightSaIS0_EE9push_backERKS0_, symObjAddr: 0x185C, symBinAddr: 0x100001F4C, symSize: 0xF8 }
  - { offset: 0x23079, size: 0x8, addend: 0x0, symName: __ZNSt5dequeI6FlightSaIS0_EE15_M_destroy_dataESt15_Deque_iteratorIS0_RS0_PS0_ES6_RKS1_, symObjAddr: 0x183C, symBinAddr: 0x100001F2C, symSize: 0x20 }
  - { offset: 0x230D4, size: 0x8, addend: 0x0, symName: __ZNSt11_Deque_baseI6FlightSaIS0_EE19_M_get_Tp_allocatorEv, symObjAddr: 0x1828, symBinAddr: 0x100001F18, symSize: 0x14 }
  - { offset: 0x230FE, size: 0x8, addend: 0x0, symName: __ZNSt5dequeI6FlightSaIS0_EE3endEv, symObjAddr: 0x17F0, symBinAddr: 0x100001EE0, symSize: 0x38 }
  - { offset: 0x23128, size: 0x8, addend: 0x0, symName: __ZNSt5dequeI6FlightSaIS0_EE5beginEv, symObjAddr: 0x17B8, symBinAddr: 0x100001EA8, symSize: 0x38 }
  - { offset: 0x2316C, size: 0x8, addend: 0x0, symName: __ZNSt11_Deque_baseI6FlightSaIS0_EED2Ev, symObjAddr: 0x174C, symBinAddr: 0x100001E3C, symSize: 0x6C }
  - { offset: 0x231AC, size: 0x8, addend: 0x0, symName: __ZNSt11_Deque_baseI6FlightSaIS0_EEC2Ev, symObjAddr: 0x1704, symBinAddr: 0x100001DF4, symSize: 0x48 }
  - { offset: 0x231F0, size: 0x8, addend: 0x0, symName: __ZNSt11_Deque_baseI6FlightSaIS0_EE11_Deque_implD1Ev, symObjAddr: 0x16D8, symBinAddr: 0x100001DC8, symSize: 0x2C }
  - { offset: 0x23236, size: 0x8, addend: 0x0, symName: __ZSt6__sortISt16reverse_iteratorIN9__gnu_cxx17__normal_iteratorIP6FlightSt6vectorIS3_SaIS3_EEEEENS1_5__ops15_Iter_less_iterEEvT_SC_T0_, symObjAddr: 0x1634, symBinAddr: 0x100001D24, symSize: 0xA4 }
  - { offset: 0x23296, size: 0x8, addend: 0x0, symName: __ZStmiIN9__gnu_cxx17__normal_iteratorIP6FlightSt6vectorIS2_SaIS2_EEEES7_EDTmicldtfp0_4baseEcldtfp_4baseEERKSt16reverse_iteratorIT_ERKS9_IT0_E, symObjAddr: 0x15D0, symBinAddr: 0x100001CC0, symSize: 0x64 }
  - { offset: 0x23356, size: 0x8, addend: 0x0, symName: __ZNKSt16reverse_iteratorIN9__gnu_cxx17__normal_iteratorIP6FlightSt6vectorIS2_SaIS2_EEEEE4baseEv, symObjAddr: 0x15B8, symBinAddr: 0x100001CA8, symSize: 0x18 }
  - { offset: 0x2337C, size: 0x8, addend: 0x0, symName: __ZSteqIN9__gnu_cxx17__normal_iteratorIP6FlightSt6vectorIS2_SaIS2_EEEEEbRKSt16reverse_iteratorIT_ESC_, symObjAddr: 0x155C, symBinAddr: 0x100001C4C, symSize: 0x5C }
  - { offset: 0x2342F, size: 0x8, addend: 0x0, symName: __ZStneIN9__gnu_cxx17__normal_iteratorIP6FlightSt6vectorIS2_SaIS2_EEEEEbRKSt16reverse_iteratorIT_ESC_, symObjAddr: 0x1530, symBinAddr: 0x100001C20, symSize: 0x2C }
  - { offset: 0x2349E, size: 0x8, addend: 0x0, symName: __ZNSt16reverse_iteratorIN9__gnu_cxx17__normal_iteratorIP6FlightSt6vectorIS2_SaIS2_EEEEEC1ERKS8_, symObjAddr: 0x1508, symBinAddr: 0x100001BF8, symSize: 0x28 }
  - { offset: 0x234F4, size: 0x8, addend: 0x0, symName: __ZNSt16reverse_iteratorIN9__gnu_cxx17__normal_iteratorIP6FlightSt6vectorIS2_SaIS2_EEEEEC1ES7_, symObjAddr: 0x14E4, symBinAddr: 0x100001BD4, symSize: 0x24 }
  - { offset: 0x23523, size: 0x8, addend: 0x0, symName: __ZNKSt6vectorIiSaIiEE4sizeEv, symObjAddr: 0x14A4, symBinAddr: 0x100001B94, symSize: 0x40 }
  - { offset: 0x2355E, size: 0x8, addend: 0x0, symName: __ZNSt6vectorI6FlightSaIS0_EE12emplace_backIJS0_EEERS0_DpOT_, symObjAddr: 0x1398, symBinAddr: 0x100001A88, symSize: 0x10C }
  - { offset: 0x236C6, size: 0x8, addend: 0x0, symName: __ZNKSt6vectorIS_I6FlightSaIS0_EESaIS2_EE4sizeEv, symObjAddr: 0x134C, symBinAddr: 0x100001A3C, symSize: 0x4C }
  - { offset: 0x23701, size: 0x8, addend: 0x0, symName: __ZNSt6vectorIiSaIiEE21_M_default_initializeEm, symObjAddr: 0x12FC, symBinAddr: 0x1000019EC, symSize: 0x50 }
  - { offset: 0x23777, size: 0x8, addend: 0x0, symName: __ZNSt12_Vector_baseIiSaIiEE19_M_get_Tp_allocatorEv, symObjAddr: 0x12E8, symBinAddr: 0x1000019D8, symSize: 0x14 }
  - { offset: 0x237A1, size: 0x8, addend: 0x0, symName: __ZNSt6vectorIiSaIiEE18_M_fill_initializeEmRKi, symObjAddr: 0x1290, symBinAddr: 0x100001980, symSize: 0x58 }
  - { offset: 0x23807, size: 0x8, addend: 0x0, symName: __ZNSt12_Vector_baseIiSaIiEED2Ev, symObjAddr: 0x1240, symBinAddr: 0x100001930, symSize: 0x50 }
  - { offset: 0x23863, size: 0x8, addend: 0x0, symName: __ZNSt12_Vector_baseIiSaIiEEC2EmRKS0_, symObjAddr: 0x11EC, symBinAddr: 0x1000018DC, symSize: 0x54 }
  - { offset: 0x238B8, size: 0x8, addend: 0x0, symName: __ZNSt12_Vector_baseIiSaIiEE12_Vector_implD1Ev, symObjAddr: 0x11C0, symBinAddr: 0x1000018B0, symSize: 0x2C }
  - { offset: 0x238FD, size: 0x8, addend: 0x0, symName: __ZNSt6vectorIiSaIiEE17_S_check_init_lenEmRKS0_, symObjAddr: 0x113C, symBinAddr: 0x10000182C, symSize: 0x84 }
  - { offset: 0x239CD, size: 0x8, addend: 0x0, symName: __ZNSt15__new_allocatorIiED2Ev, symObjAddr: 0x1128, symBinAddr: 0x100001818, symSize: 0x14 }
  - { offset: 0x23A44, size: 0x8, addend: 0x0, symName: __ZNSt12_Vector_baseISt6vectorI6FlightSaIS1_EESaIS3_EE19_M_get_Tp_allocatorEv, symObjAddr: 0x1114, symBinAddr: 0x100001804, symSize: 0x14 }
  - { offset: 0x23A6E, size: 0x8, addend: 0x0, symName: __ZNSt6vectorIS_I6FlightSaIS0_EESaIS2_EE21_M_default_initializeEm, symObjAddr: 0x10C4, symBinAddr: 0x1000017B4, symSize: 0x50 }
  - { offset: 0x23AC3, size: 0x8, addend: 0x0, symName: __ZNSt12_Vector_baseISt6vectorI6FlightSaIS1_EESaIS3_EED2Ev, symObjAddr: 0x1068, symBinAddr: 0x100001758, symSize: 0x5C }
  - { offset: 0x23B1F, size: 0x8, addend: 0x0, symName: __ZNSt12_Vector_baseISt6vectorI6FlightSaIS1_EESaIS3_EEC2EmRKS4_, symObjAddr: 0x1014, symBinAddr: 0x100001704, symSize: 0x54 }
  - { offset: 0x23B74, size: 0x8, addend: 0x0, symName: __ZNSt12_Vector_baseISt6vectorI6FlightSaIS1_EESaIS3_EE12_Vector_implD1Ev, symObjAddr: 0xFE8, symBinAddr: 0x1000016D8, symSize: 0x2C }
  - { offset: 0x23BB9, size: 0x8, addend: 0x0, symName: __ZNSt6vectorIS_I6FlightSaIS0_EESaIS2_EE17_S_check_init_lenEmRKS3_, symObjAddr: 0xF64, symBinAddr: 0x100001654, symSize: 0x84 }
  - { offset: 0x23C89, size: 0x8, addend: 0x0, symName: __ZNSt15__new_allocatorISt6vectorI6FlightSaIS1_EEED2Ev, symObjAddr: 0xF50, symBinAddr: 0x100001640, symSize: 0x14 }
  - { offset: 0x23CDB, size: 0x8, addend: 0x0, symName: __ZNSt6vectorIiSaIiEE3endEv, symObjAddr: 0xF20, symBinAddr: 0x100001610, symSize: 0x30 }
  - { offset: 0x23D2F, size: 0x8, addend: 0x0, symName: __ZNSt6vectorIiSaIiEE5beginEv, symObjAddr: 0xEF4, symBinAddr: 0x1000015E4, symSize: 0x2C }
  - { offset: 0x23D83, size: 0x8, addend: 0x0, symName: __ZNSt6vectorI6FlightSaIS0_EEixEm, symObjAddr: 0xE64, symBinAddr: 0x100001554, symSize: 0x90 }
  - { offset: 0x23DD9, size: 0x8, addend: 0x0, symName: __ZNKSt6vectorI6FlightSaIS0_EE4sizeEv, symObjAddr: 0xE18, symBinAddr: 0x100001508, symSize: 0x4C }
  - { offset: 0x23E10, size: 0x8, addend: 0x0, symName: __ZSt3minIiERKT_S2_S2_, symObjAddr: 0xDE0, symBinAddr: 0x1000014D0, symSize: 0x38 }
  - { offset: 0x23E56, size: 0x8, addend: 0x0, symName: __ZNSt5queueI6FlightSt5dequeIS0_SaIS0_EEE3popEv, symObjAddr: 0xD7C, symBinAddr: 0x10000146C, symSize: 0x64 }
  - { offset: 0x23E9B, size: 0x8, addend: 0x0, symName: __ZNSt5queueI6FlightSt5dequeIS0_SaIS0_EEE5frontEv, symObjAddr: 0xD1C, symBinAddr: 0x10000140C, symSize: 0x60 }
  - { offset: 0x23EE0, size: 0x8, addend: 0x0, symName: __ZNKSt5queueI6FlightSt5dequeIS0_SaIS0_EEE5emptyEv, symObjAddr: 0xD00, symBinAddr: 0x1000013F0, symSize: 0x1C }
  - { offset: 0x23F0A, size: 0x8, addend: 0x0, symName: __ZNSt5queueI6FlightSt5dequeIS0_SaIS0_EEE4pushERKS0_, symObjAddr: 0xCD8, symBinAddr: 0x1000013C8, symSize: 0x28 }
  - { offset: 0x23F5B, size: 0x8, addend: 0x0, symName: __ZNSt6vectorI6FlightSaIS0_EE3endEv, symObjAddr: 0xCA8, symBinAddr: 0x100001398, symSize: 0x30 }
  - { offset: 0x23FAF, size: 0x8, addend: 0x0, symName: __ZNSt6vectorI6FlightSaIS0_EE5beginEv, symObjAddr: 0xC7C, symBinAddr: 0x10000136C, symSize: 0x2C }
  - { offset: 0x2401D, size: 0x8, addend: 0x0, symName: __ZNSt5dequeI6FlightSaIS0_EED1Ev, symObjAddr: 0xC14, symBinAddr: 0x100001304, symSize: 0x68 }
  - { offset: 0x2406C, size: 0x8, addend: 0x0, symName: __ZNSt5queueI6FlightSt5dequeIS0_SaIS0_EEEC1IS3_vEEv, symObjAddr: 0xBD8, symBinAddr: 0x1000012C8, symSize: 0x3C }
  - { offset: 0x240BA, size: 0x8, addend: 0x0, symName: __ZNSt5dequeI6FlightSaIS0_EEC1Ev, symObjAddr: 0xBB8, symBinAddr: 0x1000012A8, symSize: 0x20 }
  - { offset: 0x240DC, size: 0x8, addend: 0x0, symName: __ZSt4sortISt16reverse_iteratorIN9__gnu_cxx17__normal_iteratorIP6FlightSt6vectorIS3_SaIS3_EEEEEEvT_SA_, symObjAddr: 0xB68, symBinAddr: 0x100001258, symSize: 0x50 }
  - { offset: 0x24126, size: 0x8, addend: 0x0, symName: __ZNSt6vectorI6FlightSaIS0_EE4rendEv, symObjAddr: 0xB30, symBinAddr: 0x100001220, symSize: 0x38 }
  - { offset: 0x24150, size: 0x8, addend: 0x0, symName: __ZNSt6vectorI6FlightSaIS0_EE6rbeginEv, symObjAddr: 0xAF8, symBinAddr: 0x1000011E8, symSize: 0x38 }
  - { offset: 0x2417A, size: 0x8, addend: 0x0, symName: __ZNSt6vectorIiSaIiEEixEm, symObjAddr: 0xA74, symBinAddr: 0x100001164, symSize: 0x84 }
  - { offset: 0x241D0, size: 0x8, addend: 0x0, symName: __ZNSt6vectorI6FlightSaIS0_EE9push_backEOS0_, symObjAddr: 0xA40, symBinAddr: 0x100001130, symSize: 0x34 }
  - { offset: 0x2422F, size: 0x8, addend: 0x0, symName: __ZNSt6vectorIS_I6FlightSaIS0_EESaIS2_EEixEm, symObjAddr: 0x9B0, symBinAddr: 0x1000010A0, symSize: 0x90 }
  - { offset: 0x242BB, size: 0x8, addend: 0x0, symName: __ZNSt6vectorIiSaIiEEC1EmRKS0_, symObjAddr: 0x948, symBinAddr: 0x100001038, symSize: 0x68 }
  - { offset: 0x2430D, size: 0x8, addend: 0x0, symName: __ZNSt6vectorIiSaIiEED1Ev, symObjAddr: 0x8EC, symBinAddr: 0x100000FDC, symSize: 0x5C }
  - { offset: 0x243AD, size: 0x8, addend: 0x0, symName: __ZNSt6vectorIiSaIiEEC1EmRKiRKS0_, symObjAddr: 0x87C, symBinAddr: 0x100000F6C, symSize: 0x70 }
  - { offset: 0x24434, size: 0x8, addend: 0x0, symName: __ZNSt6vectorIS_I6FlightSaIS0_EESaIS2_EED1Ev, symObjAddr: 0x820, symBinAddr: 0x100000F10, symSize: 0x5C }
  - { offset: 0x244C6, size: 0x8, addend: 0x0, symName: __ZNSt6vectorIS_I6FlightSaIS0_EESaIS2_EEC1EmRKS3_, symObjAddr: 0x7B8, symBinAddr: 0x100000EA8, symSize: 0x68 }
  - { offset: 0x24526, size: 0x8, addend: 0x0, symName: __ZSt3maxImERKT_S2_S2_, symObjAddr: 0x780, symBinAddr: 0x100000E70, symSize: 0x38 }
  - { offset: 0x24571, size: 0x8, addend: 0x0, symName: _main, symObjAddr: 0x134, symBinAddr: 0x100000824, symSize: 0x64C }
  - { offset: 0x24BBF, size: 0x8, addend: 0x0, symName: __ZNSt5queueI6FlightSt5dequeIS0_SaIS0_EEED1Ev, symObjAddr: 0x114, symBinAddr: 0x100000804, symSize: 0x20 }
  - { offset: 0x24BE5, size: 0x8, addend: 0x0, symName: __ZNK6FlightltERKS_, symObjAddr: 0xE4, symBinAddr: 0x1000007D4, symSize: 0x30 }
  - { offset: 0x24C1B, size: 0x8, addend: 0x0, symName: __ZSt16__deque_buf_sizem, symObjAddr: 0xB4, symBinAddr: 0x1000007A4, symSize: 0x30 }
  - { offset: 0x24C44, size: 0x8, addend: 0x0, symName: __ZSt3minImERKT_S2_S2_, symObjAddr: 0x7C, symBinAddr: 0x10000076C, symSize: 0x38 }
  - { offset: 0x24C8D, size: 0x8, addend: 0x0, symName: __ZdlPvS_, symObjAddr: 0x64, symBinAddr: 0x100000754, symSize: 0x18 }
  - { offset: 0x24CC3, size: 0x8, addend: 0x0, symName: __ZnwmPv, symObjAddr: 0x4C, symBinAddr: 0x10000073C, symSize: 0x18 }
  - { offset: 0x24CF5, size: 0x8, addend: 0x0, symName: __ZSt17__size_to_integerm, symObjAddr: 0x38, symBinAddr: 0x100000728, symSize: 0x14 }
  - { offset: 0x24D1F, size: 0x8, addend: 0x0, symName: __ZN9__gnu_cxx5__ops15__val_comp_iterENS0_15_Iter_less_iterE, symObjAddr: 0x20, symBinAddr: 0x100000710, symSize: 0x18 }
  - { offset: 0x24D64, size: 0x8, addend: 0x0, symName: __ZN9__gnu_cxx5__ops14_Iter_less_valC1ENS0_15_Iter_less_iterE, symObjAddr: 0x8, symBinAddr: 0x1000006F8, symSize: 0x18 }
  - { offset: 0x24D8F, size: 0x8, addend: 0x0, symName: __ZN9__gnu_cxx5__ops16__iter_less_iterEv, symObjAddr: 0x0, symBinAddr: 0x1000006F0, symSize: 0x8 }
...
