---
triple:          'arm64-apple-darwin'
binary-path:     '/Users/shayan/Documents/Shayan-Documents/My-Programming/C++/USACO & CP/USACO & CP/USACO & CP/Topics/Sparse Tables/run'
relocations:
  - { offset: 0x1F3CA, size: 0x8, addend: 0x0, symName: __ZStL8__ioinit, symObjAddr: 0x98091, symBinAddr: 0x100010000, symSize: 0x0 }
  - { offset: 0x1FDCE, size: 0x8, addend: 0x0, symName: __GLOBAL__sub_I_CGCDSSQ.cpp, symObjAddr: 0x537C, symBinAddr: 0x1000054D4, symSize: 0x14 }
  - { offset: 0x1FDE6, size: 0x8, addend: 0x0, symName: __Z41__static_initialization_and_destruction_0v, symObjAddr: 0x5340, symBinAddr: 0x100005498, symSize: 0x3C }
  - { offset: 0x1FDFE, size: 0x8, addend: 0x0, symName: __ZNSt10_Head_baseILm0ERKiLb0EE7_M_headERS2_, symObjAddr: 0x4D40, symBinAddr: 0x100005480, symSize: 0x18 }
  - { offset: 0x1FE9D, size: 0x8, addend: 0x0, symName: __ZNSt11_Tuple_implILm0EJRKiEE7_M_headERS2_, symObjAddr: 0x4D24, symBinAddr: 0x100005464, symSize: 0x1C }
  - { offset: 0x1FFA9, size: 0x8, addend: 0x0, symName: __ZSt12__get_helperILm0ERKiJEERT0_RSt11_Tuple_implIXT_EJS2_DpT1_EE, symObjAddr: 0x4D08, symBinAddr: 0x100005448, symSize: 0x1C }
  - { offset: 0x1FFEB, size: 0x8, addend: 0x0, symName: __ZSt14__copy_move_a2ILb0EPiS0_S0_ET2_T0_T1_S1_, symObjAddr: 0x4BDC, symBinAddr: 0x10000531C, symSize: 0x12C }
  - { offset: 0x2018F, size: 0x8, addend: 0x0, symName: __ZSt14__copy_move_a2ILb0EPKiS1_PiET2_T0_T1_S3_, symObjAddr: 0x4AB0, symBinAddr: 0x1000051F0, symSize: 0x12C }
  - { offset: 0x20333, size: 0x8, addend: 0x0, symName: __ZSt3getILm0EJRKiEERNSt13tuple_elementIXT_ESt5tupleIJDpT0_EEE4typeERS6_, symObjAddr: 0x4A94, symBinAddr: 0x1000051D4, symSize: 0x1C }
  - { offset: 0x203E4, size: 0x8, addend: 0x0, symName: __ZSt12__niter_wrapIN9__gnu_cxx17__normal_iteratorIPiSt6vectorIiSaIiEEEES2_ET_S7_T0_, symObjAddr: 0x4A34, symBinAddr: 0x100005174, symSize: 0x60 }
  - { offset: 0x205CE, size: 0x8, addend: 0x0, symName: __ZNSt4pairIKixEC1IJRS0_EJLm0EEJEJEEERSt5tupleIJDpT_EERS4_IJDpT1_EESt12_Index_tupleIJXspT0_EEESD_IJXspT2_EEE, symObjAddr: 0x49E8, symBinAddr: 0x100005128, symSize: 0x4C }
  - { offset: 0x206A8, size: 0x8, addend: 0x0, symName: __ZSt18uninitialized_copyIPiS0_ET0_T_S2_S1_, symObjAddr: 0x496C, symBinAddr: 0x1000050AC, symSize: 0x7C }
  - { offset: 0x207D0, size: 0x8, addend: 0x0, symName: __ZSt12__miter_baseIPiET_S1_, symObjAddr: 0x4958, symBinAddr: 0x100005098, symSize: 0x14 }
  - { offset: 0x20803, size: 0x8, addend: 0x0, symName: __ZSt8_DestroyIN9__gnu_cxx17__normal_iteratorIPiSt6vectorIiSaIiEEEEEvT_S7_, symObjAddr: 0x4940, symBinAddr: 0x100005080, symSize: 0x18 }
  - { offset: 0x20893, size: 0x8, addend: 0x0, symName: __ZSt12__miter_baseIN9__gnu_cxx17__normal_iteratorIPKiSt6vectorIiSaIiEEEEET_S8_, symObjAddr: 0x492C, symBinAddr: 0x10000506C, symSize: 0x14 }
  - { offset: 0x208CA, size: 0x8, addend: 0x0, symName: __ZNSt6vectorIiSaIiEE12_Guard_alloc10_M_releaseEv, symObjAddr: 0x4904, symBinAddr: 0x100005044, symSize: 0x28 }
  - { offset: 0x2091F, size: 0x8, addend: 0x0, symName: __ZNSt6vectorIiSaIiEE12_Guard_allocD1Ev, symObjAddr: 0x48B8, symBinAddr: 0x100004FF8, symSize: 0x4C }
  - { offset: 0x20989, size: 0x8, addend: 0x0, symName: __ZNSt6vectorIiSaIiEE12_Guard_allocC1EPimRSt12_Vector_baseIiS0_E, symObjAddr: 0x4874, symBinAddr: 0x100004FB4, symSize: 0x44 }
  - { offset: 0x209CA, size: 0x8, addend: 0x0, symName: __ZNSt6vectorIiSaIiEE15_M_erase_at_endEPi, symObjAddr: 0x47EC, symBinAddr: 0x100004F2C, symSize: 0x88 }
  - { offset: 0x20A5B, size: 0x8, addend: 0x0, symName: __ZSt9__fill_a1IPiiEvT_S1_RKT0_, symObjAddr: 0x478C, symBinAddr: 0x100004ECC, symSize: 0x60 }
  - { offset: 0x20AF0, size: 0x8, addend: 0x0, symName: __ZNK9__gnu_cxx16__aligned_membufISt4pairIKixEE7_M_addrEv, symObjAddr: 0x4778, symBinAddr: 0x100004EB8, symSize: 0x14 }
  - { offset: 0x20B65, size: 0x8, addend: 0x0, symName: __ZNSt4pairIKixEC1IJRS0_EJEEESt21piecewise_construct_tSt5tupleIJDpT_EES5_IJDpT0_EE, symObjAddr: 0x473C, symBinAddr: 0x100004E7C, symSize: 0x3C }
  - { offset: 0x20BDF, size: 0x8, addend: 0x0, symName: __ZNSt11_Tuple_implILm0EJRKiEEC2EOS2_, symObjAddr: 0x4714, symBinAddr: 0x100004E54, symSize: 0x28 }
  - { offset: 0x20C20, size: 0x8, addend: 0x0, symName: __ZSt18uninitialized_copyIN9__gnu_cxx17__normal_iteratorIPKiSt6vectorIiSaIiEEEEPiET0_T_SA_S9_, symObjAddr: 0x467C, symBinAddr: 0x100004DBC, symSize: 0x98 }
  - { offset: 0x20E17, size: 0x8, addend: 0x0, symName: __ZSt22__uninitialized_copy_aIPiS0_S0_iET1_T_T0_S1_RSaIT2_E, symObjAddr: 0x464C, symBinAddr: 0x100004D8C, symSize: 0x30 }
  - { offset: 0x20E90, size: 0x8, addend: 0x0, symName: __ZSt4copyIPiS0_ET0_T_S2_S1_, symObjAddr: 0x45B4, symBinAddr: 0x100004CF4, symSize: 0x98 }
  - { offset: 0x21030, size: 0x8, addend: 0x0, symName: __ZSt4copyIN9__gnu_cxx17__normal_iteratorIPKiSt6vectorIiSaIiEEEENS1_IPiS6_EEET0_T_SB_SA_, symObjAddr: 0x450C, symBinAddr: 0x100004C4C, symSize: 0xA8 }
  - { offset: 0x211D1, size: 0x8, addend: 0x0, symName: __ZNSt6vectorIiSaIiEE20_M_allocate_and_copyIN9__gnu_cxx17__normal_iteratorIPKiS1_EEEEPimT_S9_, symObjAddr: 0x4480, symBinAddr: 0x100004BC0, symSize: 0x8C }
  - { offset: 0x21248, size: 0x8, addend: 0x0, symName: __ZNKSt6vectorIiSaIiEE8capacityEv, symObjAddr: 0x4440, symBinAddr: 0x100004B80, symSize: 0x40 }
  - { offset: 0x212B0, size: 0x8, addend: 0x0, symName: __ZNSt6vectorIiSaIiEE5clearEv, symObjAddr: 0x4414, symBinAddr: 0x100004B54, symSize: 0x2C }
  - { offset: 0x2134E, size: 0x8, addend: 0x0, symName: __ZNK9__gnu_cxx16__aligned_membufISt4pairIKixEE6_M_ptrEv, symObjAddr: 0x43F8, symBinAddr: 0x100004B38, symSize: 0x1C }
  - { offset: 0x213FE, size: 0x8, addend: 0x0, symName: __ZNSt5tupleIJRKiEEC1EOS2_, symObjAddr: 0x43D0, symBinAddr: 0x100004B10, symSize: 0x28 }
  - { offset: 0x2144B, size: 0x8, addend: 0x0, symName: __ZNSt15__new_allocatorISt13_Rb_tree_nodeISt4pairIKixEEE8allocateEmPKv, symObjAddr: 0x4340, symBinAddr: 0x100004A80, symSize: 0x90 }
  - { offset: 0x214BD, size: 0x8, addend: 0x0, symName: __ZSt22__uninitialized_copy_aIN9__gnu_cxx17__normal_iteratorIPKiSt6vectorIiSaIiEEEES7_PiiET1_T_T0_S9_RSaIT2_E, symObjAddr: 0x4310, symBinAddr: 0x100004A50, symSize: 0x30 }
  - { offset: 0x2153A, size: 0x8, addend: 0x0, symName: __ZNKSt6vectorIiSaIiEE3endEv, symObjAddr: 0x42E0, symBinAddr: 0x100004A20, symSize: 0x30 }
  - { offset: 0x2158E, size: 0x8, addend: 0x0, symName: __ZNKSt6vectorIiSaIiEE5beginEv, symObjAddr: 0x42B4, symBinAddr: 0x1000049F4, symSize: 0x2C }
  - { offset: 0x215F7, size: 0x8, addend: 0x0, symName: __ZNKSt12_Vector_baseIiSaIiEE19_M_get_Tp_allocatorEv, symObjAddr: 0x42A0, symBinAddr: 0x1000049E0, symSize: 0x14 }
  - { offset: 0x21621, size: 0x8, addend: 0x0, symName: __ZNSt6vectorIiSaIiEEaSERKS1_, symObjAddr: 0x3F58, symBinAddr: 0x100004698, symSize: 0x348 }
  - { offset: 0x21835, size: 0x8, addend: 0x0, symName: __ZNKSt10_Select1stISt4pairIKixEEclERKS2_, symObjAddr: 0x3F40, symBinAddr: 0x100004680, symSize: 0x18 }
  - { offset: 0x21870, size: 0x8, addend: 0x0, symName: __ZNKSt13_Rb_tree_nodeISt4pairIKixEE9_M_valptrEv, symObjAddr: 0x3F20, symBinAddr: 0x100004660, symSize: 0x20 }
  - { offset: 0x21984, size: 0x8, addend: 0x0, symName: __ZNSt6vectorIiSaIiEEC1ERKS1_, symObjAddr: 0x3E0C, symBinAddr: 0x10000454C, symSize: 0x114 }
  - { offset: 0x21B41, size: 0x8, addend: 0x0, symName: __ZNSt15__new_allocatorISt13_Rb_tree_nodeISt4pairIKixEEE10deallocateEPS4_m, symObjAddr: 0x3DD0, symBinAddr: 0x100004510, symSize: 0x3C }
  - { offset: 0x21C16, size: 0x8, addend: 0x0, symName: __ZSt10_ConstructIiJEEvPT_DpOT0_, symObjAddr: 0x3D84, symBinAddr: 0x1000044C4, symSize: 0x4C }
  - { offset: 0x21C78, size: 0x8, addend: 0x0, symName: __ZNSt15__new_allocatorIiE8allocateEmPKv, symObjAddr: 0x3D08, symBinAddr: 0x100004448, symSize: 0x7C }
  - { offset: 0x21D00, size: 0x8, addend: 0x0, symName: __ZNSt9__rb_tree12_Node_traitsISt4pairIKixEPS3_E23_S_insert_and_rebalanceEbPSt18_Rb_tree_node_baseS7_RS6_, symObjAddr: 0x3CD0, symBinAddr: 0x100004410, symSize: 0x38 }
  - { offset: 0x21D61, size: 0x8, addend: 0x0, symName: __ZNSt8_Rb_treeIiSt4pairIKixESt10_Select1stIS2_ESt4lessIiESaIS2_EE5beginEv, symObjAddr: 0x3CA8, symBinAddr: 0x1000043E8, symSize: 0x28 }
  - { offset: 0x21DDC, size: 0x8, addend: 0x0, symName: __ZNSt8_Rb_treeIiSt4pairIKixESt10_Select1stIS2_ESt4lessIiESaIS2_EE6_S_keyERKSt13_Rb_tree_nodeIS2_E, symObjAddr: 0x3C80, symBinAddr: 0x1000043C0, symSize: 0x28 }
  - { offset: 0x21E0A, size: 0x8, addend: 0x0, symName: __ZNSt8_Rb_treeIiSt4pairIKixESt10_Select1stIS2_ESt4lessIiESaIS2_EE17_M_construct_nodeIJRKSt21piecewise_construct_tSt5tupleIJRS1_EESD_IJEEEEEvPSt13_Rb_tree_nodeIS2_EDpOT_, symObjAddr: 0x3AB0, symBinAddr: 0x1000041F0, symSize: 0x1D0 }
  - { offset: 0x2205A, size: 0x8, addend: 0x0, symName: __ZNSt8_Rb_treeIiSt4pairIKixESt10_Select1stIS2_ESt4lessIiESaIS2_EE11_M_get_nodeEv, symObjAddr: 0x3A74, symBinAddr: 0x1000041B4, symSize: 0x3C }
  - { offset: 0x220B5, size: 0x8, addend: 0x0, symName: __ZN9__gnu_cxx16__aligned_membufISt4pairIKixEE7_M_addrEv, symObjAddr: 0x3A60, symBinAddr: 0x1000041A0, symSize: 0x14 }
  - { offset: 0x220DB, size: 0x8, addend: 0x0, symName: __ZNSt8_Rb_treeIiSt4pairIKixESt10_Select1stIS2_ESt4lessIiESaIS2_EE7_S_leftEPSt18_Rb_tree_node_base, symObjAddr: 0x3A48, symBinAddr: 0x100004188, symSize: 0x18 }
  - { offset: 0x22105, size: 0x8, addend: 0x0, symName: __ZSt10_ConstructISt6vectorIiSaIiEEJRKS2_EEvPT_DpOT0_, symObjAddr: 0x39AC, symBinAddr: 0x1000040EC, symSize: 0x9C }
  - { offset: 0x221E4, size: 0x8, addend: 0x0, symName: __ZNSt19_UninitDestroyGuardIPSt6vectorIiSaIiEEvE7releaseEv, symObjAddr: 0x3990, symBinAddr: 0x1000040D0, symSize: 0x1C }
  - { offset: 0x2220A, size: 0x8, addend: 0x0, symName: __ZSt10_ConstructISt6vectorIiSaIiEEJRS2_EEvPT_DpOT0_, symObjAddr: 0x38F4, symBinAddr: 0x100004034, symSize: 0x9C }
  - { offset: 0x2229B, size: 0x8, addend: 0x0, symName: __ZNSt19_UninitDestroyGuardIPSt6vectorIiSaIiEEvED1Ev, symObjAddr: 0x389C, symBinAddr: 0x100003FDC, symSize: 0x58 }
  - { offset: 0x222E8, size: 0x8, addend: 0x0, symName: __ZNSt19_UninitDestroyGuardIPSt6vectorIiSaIiEEvEC1ERS3_, symObjAddr: 0x3868, symBinAddr: 0x100003FA8, symSize: 0x34 }
  - { offset: 0x22313, size: 0x8, addend: 0x0, symName: __ZSt14__copy_move_a2ILb0EPSt6vectorIiSaIiEES3_S3_ET2_T0_T1_S4_, symObjAddr: 0x380C, symBinAddr: 0x100003F4C, symSize: 0x5C }
  - { offset: 0x223CF, size: 0x8, addend: 0x0, symName: __ZSt14__copy_move_a2ILb0EPKSt6vectorIiSaIiEES4_PS2_ET2_T0_T1_S6_, symObjAddr: 0x37B0, symBinAddr: 0x100003EF0, symSize: 0x5C }
  - { offset: 0x22497, size: 0x8, addend: 0x0, symName: __ZNSt15__new_allocatorISt6vectorIiSaIiEEE8allocateEmPKv, symObjAddr: 0x3720, symBinAddr: 0x100003E60, symSize: 0x90 }
  - { offset: 0x2256C, size: 0x8, addend: 0x0, symName: __ZNSt8_Rb_treeIiSt4pairIKixESt10_Select1stIS2_ESt4lessIiESaIS2_EE21_M_get_Node_allocatorEv, symObjAddr: 0x370C, symBinAddr: 0x100003E4C, symSize: 0x14 }
  - { offset: 0x22592, size: 0x8, addend: 0x0, symName: __ZSt18__do_uninit_fill_nIPSt6vectorIiSaIiEEmS2_ET_S4_T0_RKT1_, symObjAddr: 0x3664, symBinAddr: 0x100003DA4, symSize: 0xA8 }
  - { offset: 0x2265F, size: 0x8, addend: 0x0, symName: __ZNSt27__uninitialized_default_n_1ILb1EE18__uninit_default_nIPimEET_S3_T0_, symObjAddr: 0x3570, symBinAddr: 0x100003CB0, symSize: 0xF4 }
  - { offset: 0x227D0, size: 0x8, addend: 0x0, symName: __ZNSt15__new_allocatorIiE10deallocateEPim, symObjAddr: 0x3540, symBinAddr: 0x100003C80, symSize: 0x30 }
  - { offset: 0x22854, size: 0x8, addend: 0x0, symName: __ZNSt8_Rb_treeIiSt4pairIKixESt10_Select1stIS2_ESt4lessIiESaIS2_EE14_M_insert_nodeEPSt18_Rb_tree_node_baseSA_PSt13_Rb_tree_nodeIS2_E, symObjAddr: 0x3464, symBinAddr: 0x100003BA4, symSize: 0xDC }
  - { offset: 0x228CF, size: 0x8, addend: 0x0, symName: __ZNSt8_Rb_treeIiSt4pairIKixESt10_Select1stIS2_ESt4lessIiESaIS2_EE6_S_keyEPSt13_Rb_tree_nodeIS2_E, symObjAddr: 0x3448, symBinAddr: 0x100003B88, symSize: 0x1C }
  - { offset: 0x22945, size: 0x8, addend: 0x0, symName: __ZNSt4pairIPSt18_Rb_tree_node_baseS1_EC1IRS1_S1_Lb1EEEOT_OT0_, symObjAddr: 0x33FC, symBinAddr: 0x100003B3C, symSize: 0x4C }
  - { offset: 0x229D7, size: 0x8, addend: 0x0, symName: __ZNSt17_Rb_tree_iteratorISt4pairIKixEEppEv, symObjAddr: 0x33CC, symBinAddr: 0x100003B0C, symSize: 0x30 }
  - { offset: 0x229FD, size: 0x8, addend: 0x0, symName: __ZNSt8_Rb_treeIiSt4pairIKixESt10_Select1stIS2_ESt4lessIiESaIS2_EE8_S_rightEPSt18_Rb_tree_node_base, symObjAddr: 0x33B4, symBinAddr: 0x100003AF4, symSize: 0x18 }
  - { offset: 0x22A2B, size: 0x8, addend: 0x0, symName: __ZNSt17_Rb_tree_iteratorISt4pairIKixEEmmEv, symObjAddr: 0x3384, symBinAddr: 0x100003AC4, symSize: 0x30 }
  - { offset: 0x22A9D, size: 0x8, addend: 0x0, symName: __ZNSt4pairIPSt18_Rb_tree_node_baseS1_EC1IRS1_S4_Lb1EEEOT_OT0_, symObjAddr: 0x3338, symBinAddr: 0x100003A78, symSize: 0x4C }
  - { offset: 0x22B2F, size: 0x8, addend: 0x0, symName: __ZNSt8_Rb_treeIiSt4pairIKixESt10_Select1stIS2_ESt4lessIiESaIS2_EE11_M_leftmostEv, symObjAddr: 0x3320, symBinAddr: 0x100003A60, symSize: 0x18 }
  - { offset: 0x22B59, size: 0x8, addend: 0x0, symName: __ZNSt8_Rb_treeIiSt4pairIKixESt10_Select1stIS2_ESt4lessIiESaIS2_EE24_M_get_insert_unique_posERS1_, symObjAddr: 0x31C8, symBinAddr: 0x100003908, symSize: 0x158 }
  - { offset: 0x22C25, size: 0x8, addend: 0x0, symName: __ZNSt4pairIPSt18_Rb_tree_node_baseS1_EC1IS1_RS1_Lb1EEEOT_OT0_, symObjAddr: 0x317C, symBinAddr: 0x1000038BC, symSize: 0x4C }
  - { offset: 0x22CB3, size: 0x8, addend: 0x0, symName: __ZNSt8_Rb_treeIiSt4pairIKixESt10_Select1stIS2_ESt4lessIiESaIS2_EE6_S_keyEPSt18_Rb_tree_node_base, symObjAddr: 0x3160, symBinAddr: 0x1000038A0, symSize: 0x1C }
  - { offset: 0x22CE1, size: 0x8, addend: 0x0, symName: __ZNSt8_Rb_treeIiSt4pairIKixESt10_Select1stIS2_ESt4lessIiESaIS2_EE12_M_rightmostEv, symObjAddr: 0x3148, symBinAddr: 0x100003888, symSize: 0x18 }
  - { offset: 0x22D0B, size: 0x8, addend: 0x0, symName: __ZNKSt8_Rb_treeIiSt4pairIKixESt10_Select1stIS2_ESt4lessIiESaIS2_EE4sizeEv, symObjAddr: 0x3130, symBinAddr: 0x100003870, symSize: 0x18 }
  - { offset: 0x22D35, size: 0x8, addend: 0x0, symName: __ZNSt8_Rb_treeIiSt4pairIKixESt10_Select1stIS2_ESt4lessIiESaIS2_EE14_M_create_nodeIJRKSt21piecewise_construct_tSt5tupleIJRS1_EESD_IJEEEEEPSt13_Rb_tree_nodeIS2_EDpOT_, symObjAddr: 0x30C4, symBinAddr: 0x100003804, symSize: 0x6C }
  - { offset: 0x22E3E, size: 0x8, addend: 0x0, symName: __ZNSt10_Head_baseILm0ERKiLb0EEC2ES1_, symObjAddr: 0x30A0, symBinAddr: 0x1000037E0, symSize: 0x24 }
  - { offset: 0x22E6D, size: 0x8, addend: 0x0, symName: __ZN9__gnu_cxx16__aligned_membufISt4pairIKixEE6_M_ptrEv, symObjAddr: 0x3084, symBinAddr: 0x1000037C4, symSize: 0x1C }
  - { offset: 0x22E97, size: 0x8, addend: 0x0, symName: __ZNKSt8_Rb_treeIiSt4pairIKixESt10_Select1stIS2_ESt4lessIiESaIS2_EE6_M_endEv, symObjAddr: 0x3064, symBinAddr: 0x1000037A4, symSize: 0x20 }
  - { offset: 0x22EC1, size: 0x8, addend: 0x0, symName: __ZNKSt8_Rb_treeIiSt4pairIKixESt10_Select1stIS2_ESt4lessIiESaIS2_EE8_M_beginEv, symObjAddr: 0x304C, symBinAddr: 0x10000378C, symSize: 0x18 }
  - { offset: 0x22EEB, size: 0x8, addend: 0x0, symName: __ZNKSt8_Rb_treeIiSt4pairIKixESt10_Select1stIS2_ESt4lessIiESaIS2_EE14_M_lower_boundEPSt18_Rb_tree_node_baseSA_RS1_, symObjAddr: 0x2FBC, symBinAddr: 0x1000036FC, symSize: 0x90 }
  - { offset: 0x22F44, size: 0x8, addend: 0x0, symName: __ZSt16__do_uninit_copyIN9__gnu_cxx17__normal_iteratorIPKSt6vectorIiSaIiEES2_IS4_SaIS4_EEEES9_PS4_ET1_T_T0_SB_, symObjAddr: 0x2EF0, symBinAddr: 0x100003630, symSize: 0xCC }
  - { offset: 0x2308A, size: 0x8, addend: 0x0, symName: __ZSt16__do_uninit_copyIPSt6vectorIiSaIiEES3_S3_ET1_T_T0_S4_, symObjAddr: 0x2E50, symBinAddr: 0x100003590, symSize: 0xA0 }
  - { offset: 0x2321A, size: 0x8, addend: 0x0, symName: __ZSt12__niter_wrapIN9__gnu_cxx17__normal_iteratorIPSt6vectorIiSaIiEES2_IS4_SaIS4_EEEES5_ET_S9_T0_, symObjAddr: 0x2DD8, symBinAddr: 0x100003518, symSize: 0x78 }
  - { offset: 0x233E7, size: 0x8, addend: 0x0, symName: __ZNSt8_Rb_treeIiSt4pairIKixESt10_Select1stIS2_ESt4lessIiESaIS2_EE11_M_put_nodeEPSt13_Rb_tree_nodeIS2_E, symObjAddr: 0x2D8C, symBinAddr: 0x1000034CC, symSize: 0x4C }
  - { offset: 0x23458, size: 0x8, addend: 0x0, symName: __ZNSt8_Rb_treeIiSt4pairIKixESt10_Select1stIS2_ESt4lessIiESaIS2_EE15_M_destroy_nodeEPSt13_Rb_tree_nodeIS2_E, symObjAddr: 0x2D34, symBinAddr: 0x100003474, symSize: 0x58 }
  - { offset: 0x234ED, size: 0x8, addend: 0x0, symName: __ZNSt15__new_allocatorISt6vectorIiSaIiEEE10deallocateEPS2_m, symObjAddr: 0x2CF8, symBinAddr: 0x100003438, symSize: 0x3C }
  - { offset: 0x23533, size: 0x8, addend: 0x0, symName: __ZSt8_DestroyISt6vectorIiSaIiEEEvPT_, symObjAddr: 0x2CD8, symBinAddr: 0x100003418, symSize: 0x20 }
  - { offset: 0x23583, size: 0x8, addend: 0x0, symName: __ZSt20uninitialized_fill_nIPSt6vectorIiSaIiEEmS2_ET_S4_T0_RKT1_, symObjAddr: 0x2CAC, symBinAddr: 0x1000033EC, symSize: 0x2C }
  - { offset: 0x2361B, size: 0x8, addend: 0x0, symName: __ZSt25__uninitialized_default_nIPimET_S1_T0_, symObjAddr: 0x2C80, symBinAddr: 0x1000033C0, symSize: 0x2C }
  - { offset: 0x236AF, size: 0x8, addend: 0x0, symName: __ZNSt12_Vector_baseIiSaIiEE11_M_allocateEm, symObjAddr: 0x2C30, symBinAddr: 0x100003370, symSize: 0x50 }
  - { offset: 0x23731, size: 0x8, addend: 0x0, symName: __ZNSt12_Vector_baseIiSaIiEE17_Vector_impl_dataC2Ev, symObjAddr: 0x2C04, symBinAddr: 0x100003344, symSize: 0x2C }
  - { offset: 0x237B0, size: 0x8, addend: 0x0, symName: __ZNSt17_Rb_tree_iteratorISt4pairIKixEEC1EPSt18_Rb_tree_node_base, symObjAddr: 0x2BE0, symBinAddr: 0x100003320, symSize: 0x24 }
  - { offset: 0x237DF, size: 0x8, addend: 0x0, symName: __ZNSt8_Rb_treeIiSt4pairIKixESt10_Select1stIS2_ESt4lessIiESaIS2_EE10_Auto_node9_M_insertES0_IPSt18_Rb_tree_node_baseSB_E, symObjAddr: 0x2B94, symBinAddr: 0x1000032D4, symSize: 0x4C }
  - { offset: 0x2382B, size: 0x8, addend: 0x0, symName: __ZNKSt8_Rb_treeIiSt4pairIKixESt10_Select1stIS2_ESt4lessIiESaIS2_EE10_Auto_node6_M_keyEv, symObjAddr: 0x2B74, symBinAddr: 0x1000032B4, symSize: 0x20 }
  - { offset: 0x23855, size: 0x8, addend: 0x0, symName: __ZNSt8_Rb_treeIiSt4pairIKixESt10_Select1stIS2_ESt4lessIiESaIS2_EE29_M_get_insert_hint_unique_posESt23_Rb_tree_const_iteratorIS2_ERS1_, symObjAddr: 0x2854, symBinAddr: 0x100002F94, symSize: 0x320 }
  - { offset: 0x23908, size: 0x8, addend: 0x0, symName: __ZNSt8_Rb_treeIiSt4pairIKixESt10_Select1stIS2_ESt4lessIiESaIS2_EE10_Auto_nodeD1Ev, symObjAddr: 0x2810, symBinAddr: 0x100002F50, symSize: 0x44 }
  - { offset: 0x23985, size: 0x8, addend: 0x0, symName: __ZNSt8_Rb_treeIiSt4pairIKixESt10_Select1stIS2_ESt4lessIiESaIS2_EE10_Auto_nodeC1IJRKSt21piecewise_construct_tSt5tupleIJRS1_EESE_IJEEEEERS8_DpOT_, symObjAddr: 0x2798, symBinAddr: 0x100002ED8, symSize: 0x78 }
  - { offset: 0x23AF0, size: 0x8, addend: 0x0, symName: __ZNSt11_Tuple_implILm0EJRKiEEC2ES1_, symObjAddr: 0x2770, symBinAddr: 0x100002EB0, symSize: 0x28 }
  - { offset: 0x23B1F, size: 0x8, addend: 0x0, symName: __ZNSt13_Rb_tree_nodeISt4pairIKixEE9_M_valptrEv, symObjAddr: 0x2750, symBinAddr: 0x100002E90, symSize: 0x20 }
  - { offset: 0x23B49, size: 0x8, addend: 0x0, symName: __ZNKSt8_Rb_treeIiSt4pairIKixESt10_Select1stIS2_ESt4lessIiESaIS2_EE8key_compEv, symObjAddr: 0x2738, symBinAddr: 0x100002E78, symSize: 0x18 }
  - { offset: 0x23B73, size: 0x8, addend: 0x0, symName: __ZNSt8_Rb_treeIiSt4pairIKixESt10_Select1stIS2_ESt4lessIiESaIS2_EE3endEv, symObjAddr: 0x270C, symBinAddr: 0x100002E4C, symSize: 0x2C }
  - { offset: 0x23B9D, size: 0x8, addend: 0x0, symName: __ZNSt8_Rb_treeIiSt4pairIKixESt10_Select1stIS2_ESt4lessIiESaIS2_EE11lower_boundERS1_, symObjAddr: 0x26B4, symBinAddr: 0x100002DF4, symSize: 0x58 }
  - { offset: 0x23BD4, size: 0x8, addend: 0x0, symName: __ZSt18uninitialized_copyIN9__gnu_cxx17__normal_iteratorIPKSt6vectorIiSaIiEES2_IS4_SaIS4_EEEEPS4_ET0_T_SC_SB_, symObjAddr: 0x2688, symBinAddr: 0x100002DC8, symSize: 0x2C }
  - { offset: 0x23C45, size: 0x8, addend: 0x0, symName: __ZSt18uninitialized_copyIPSt6vectorIiSaIiEES3_ET0_T_S5_S4_, symObjAddr: 0x265C, symBinAddr: 0x100002D9C, symSize: 0x2C }
  - { offset: 0x23CEE, size: 0x8, addend: 0x0, symName: __ZSt12__miter_baseIPSt6vectorIiSaIiEEET_S4_, symObjAddr: 0x2648, symBinAddr: 0x100002D88, symSize: 0x14 }
  - { offset: 0x23D21, size: 0x8, addend: 0x0, symName: __ZSt8_DestroyIN9__gnu_cxx17__normal_iteratorIPSt6vectorIiSaIiEES2_IS4_SaIS4_EEEEEvT_S9_, symObjAddr: 0x25CC, symBinAddr: 0x100002D0C, symSize: 0x7C }
  - { offset: 0x23E82, size: 0x8, addend: 0x0, symName: __ZSt12__miter_baseIN9__gnu_cxx17__normal_iteratorIPKSt6vectorIiSaIiEES2_IS4_SaIS4_EEEEET_SA_, symObjAddr: 0x25B8, symBinAddr: 0x100002CF8, symSize: 0x14 }
  - { offset: 0x23EDD, size: 0x8, addend: 0x0, symName: __ZNSt6vectorIS_IiSaIiEESaIS1_EE12_Guard_alloc10_M_releaseEv, symObjAddr: 0x2590, symBinAddr: 0x100002CD0, symSize: 0x28 }
  - { offset: 0x23F32, size: 0x8, addend: 0x0, symName: __ZNSt6vectorIS_IiSaIiEESaIS1_EE12_Guard_allocD1Ev, symObjAddr: 0x2544, symBinAddr: 0x100002C84, symSize: 0x4C }
  - { offset: 0x23F9C, size: 0x8, addend: 0x0, symName: __ZNSt6vectorIS_IiSaIiEESaIS1_EE12_Guard_allocC1EPS1_mRSt12_Vector_baseIS1_S2_E, symObjAddr: 0x2500, symBinAddr: 0x100002C40, symSize: 0x44 }
  - { offset: 0x23FDD, size: 0x8, addend: 0x0, symName: __ZNSt12_Vector_baseISt6vectorIiSaIiEESaIS2_EE11_M_allocateEm, symObjAddr: 0x24B0, symBinAddr: 0x100002BF0, symSize: 0x50 }
  - { offset: 0x24069, size: 0x8, addend: 0x0, symName: __ZNSt6vectorIS_IiSaIiEESaIS1_EE15_M_erase_at_endEPS1_, symObjAddr: 0x241C, symBinAddr: 0x100002B5C, symSize: 0x94 }
  - { offset: 0x240FE, size: 0x8, addend: 0x0, symName: __ZNSt13_Rb_tree_nodeISt4pairIKixEE11_M_node_ptrEv, symObjAddr: 0x2408, symBinAddr: 0x100002B48, symSize: 0x14 }
  - { offset: 0x24128, size: 0x8, addend: 0x0, symName: __ZNSt8_Rb_treeIiSt4pairIKixESt10_Select1stIS2_ESt4lessIiESaIS2_EE12_M_drop_nodeEPSt13_Rb_tree_nodeIS2_E, symObjAddr: 0x23D4, symBinAddr: 0x100002B14, symSize: 0x34 }
  - { offset: 0x2415F, size: 0x8, addend: 0x0, symName: __ZNSt8_Rb_treeIiSt4pairIKixESt10_Select1stIS2_ESt4lessIiESaIS2_EE7_S_leftEPSt13_Rb_tree_nodeIS2_E, symObjAddr: 0x239C, symBinAddr: 0x100002ADC, symSize: 0x38 }
  - { offset: 0x24189, size: 0x8, addend: 0x0, symName: __ZNSt8_Rb_treeIiSt4pairIKixESt10_Select1stIS2_ESt4lessIiESaIS2_EE8_S_rightEPSt13_Rb_tree_nodeIS2_E, symObjAddr: 0x2364, symBinAddr: 0x100002AA4, symSize: 0x38 }
  - { offset: 0x241FB, size: 0x8, addend: 0x0, symName: __ZSt8_DestroyIPSt6vectorIiSaIiEEEvT_S4_, symObjAddr: 0x2314, symBinAddr: 0x100002A54, symSize: 0x50 }
  - { offset: 0x24260, size: 0x8, addend: 0x0, symName: __ZSt24__uninitialized_fill_n_aIPSt6vectorIiSaIiEEmS2_S2_ET_S4_T0_RKT1_RSaIT2_E, symObjAddr: 0x22E4, symBinAddr: 0x100002A24, symSize: 0x30 }
  - { offset: 0x242DD, size: 0x8, addend: 0x0, symName: __ZNSt12_Vector_baseISt6vectorIiSaIiEESaIS2_EE17_M_create_storageEm, symObjAddr: 0x2278, symBinAddr: 0x1000029B8, symSize: 0x6C }
  - { offset: 0x2433F, size: 0x8, addend: 0x0, symName: __ZNSt12_Vector_baseISt6vectorIiSaIiEESaIS2_EE12_Vector_implC1ERKS3_, symObjAddr: 0x222C, symBinAddr: 0x10000296C, symSize: 0x4C }
  - { offset: 0x243E5, size: 0x8, addend: 0x0, symName: __ZNSt6vectorIS_IiSaIiEESaIS1_EE11_S_max_sizeERKS2_, symObjAddr: 0x21D0, symBinAddr: 0x100002910, symSize: 0x5C }
  - { offset: 0x2449C, size: 0x8, addend: 0x0, symName: __ZSt8_DestroyIPiEvT_S1_, symObjAddr: 0x21B8, symBinAddr: 0x1000028F8, symSize: 0x18 }
  - { offset: 0x244DE, size: 0x8, addend: 0x0, symName: __ZSt27__uninitialized_default_n_aIPimiET_S1_T0_RSaIT1_E, symObjAddr: 0x2190, symBinAddr: 0x1000028D0, symSize: 0x28 }
  - { offset: 0x24541, size: 0x8, addend: 0x0, symName: __ZNSt12_Vector_baseIiSaIiEE13_M_deallocateEPim, symObjAddr: 0x2138, symBinAddr: 0x100002878, symSize: 0x58 }
  - { offset: 0x245C3, size: 0x8, addend: 0x0, symName: __ZNSt12_Vector_baseIiSaIiEE17_M_create_storageEm, symObjAddr: 0x20D8, symBinAddr: 0x100002818, symSize: 0x60 }
  - { offset: 0x24625, size: 0x8, addend: 0x0, symName: __ZNSt12_Vector_baseIiSaIiEE12_Vector_implC1ERKS0_, symObjAddr: 0x208C, symBinAddr: 0x1000027CC, symSize: 0x4C }
  - { offset: 0x246CB, size: 0x8, addend: 0x0, symName: __ZNSt6vectorIiSaIiEE11_S_max_sizeERKS0_, symObjAddr: 0x2038, symBinAddr: 0x100002778, symSize: 0x54 }
  - { offset: 0x24786, size: 0x8, addend: 0x0, symName: __ZNSt8_Rb_treeIiSt4pairIKixESt10_Select1stIS2_ESt4lessIiESaIS2_EE22_M_emplace_hint_uniqueIJRKSt21piecewise_construct_tSt5tupleIJRS1_EESD_IJEEEEESt17_Rb_tree_iteratorIS2_ESt23_Rb_tree_const_iteratorIS2_EDpOT_, symObjAddr: 0x1F60, symBinAddr: 0x1000026A0, symSize: 0xD8 }
  - { offset: 0x248B7, size: 0x8, addend: 0x0, symName: __ZNSt23_Rb_tree_const_iteratorISt4pairIKixEEC1ERKSt17_Rb_tree_iteratorIS2_E, symObjAddr: 0x1F38, symBinAddr: 0x100002678, symSize: 0x28 }
  - { offset: 0x24918, size: 0x8, addend: 0x0, symName: __ZNSt5tupleIJRKiEEC1ILb1ELb1EEES1_, symObjAddr: 0x1F10, symBinAddr: 0x100002650, symSize: 0x28 }
  - { offset: 0x24951, size: 0x8, addend: 0x0, symName: __ZNKSt4lessIiEclERKiS2_, symObjAddr: 0x1EDC, symBinAddr: 0x10000261C, symSize: 0x34 }
  - { offset: 0x2499D, size: 0x8, addend: 0x0, symName: __ZNKSt17_Rb_tree_iteratorISt4pairIKixEEdeEv, symObjAddr: 0x1EBC, symBinAddr: 0x1000025FC, symSize: 0x20 }
  - { offset: 0x249C7, size: 0x8, addend: 0x0, symName: __ZNKSt3mapIixSt4lessIiESaISt4pairIKixEEE8key_compEv, symObjAddr: 0x1E90, symBinAddr: 0x1000025D0, symSize: 0x2C }
  - { offset: 0x249F3, size: 0x8, addend: 0x0, symName: __ZSteqRKSt17_Rb_tree_iteratorISt4pairIKixEES5_, symObjAddr: 0x1E60, symBinAddr: 0x1000025A0, symSize: 0x30 }
  - { offset: 0x24A32, size: 0x8, addend: 0x0, symName: __ZNSt3mapIixSt4lessIiESaISt4pairIKixEEE3endEv, symObjAddr: 0x1E44, symBinAddr: 0x100002584, symSize: 0x1C }
  - { offset: 0x24A5C, size: 0x8, addend: 0x0, symName: __ZNSt3mapIixSt4lessIiESaISt4pairIKixEEE11lower_boundERS3_, symObjAddr: 0x1E20, symBinAddr: 0x100002560, symSize: 0x24 }
  - { offset: 0x24A93, size: 0x8, addend: 0x0, symName: __ZSt22__uninitialized_copy_aIN9__gnu_cxx17__normal_iteratorIPKSt6vectorIiSaIiEES2_IS4_SaIS4_EEEES9_PS4_S4_ET1_T_T0_SB_RSaIT2_E, symObjAddr: 0x1DF0, symBinAddr: 0x100002530, symSize: 0x30 }
  - { offset: 0x24B21, size: 0x8, addend: 0x0, symName: __ZNSt8__detail5__gcdIjEET_S1_S1_, symObjAddr: 0x1CE4, symBinAddr: 0x100002424, symSize: 0x10C }
  - { offset: 0x24BBA, size: 0x8, addend: 0x0, symName: __ZNKSt6vectorIiSaIiEE4sizeEv, symObjAddr: 0x1CA4, symBinAddr: 0x1000023E4, symSize: 0x40 }
  - { offset: 0x24BF1, size: 0x8, addend: 0x0, symName: __ZSt22__uninitialized_copy_aIPSt6vectorIiSaIiEES3_S3_S2_ET1_T_T0_S4_RSaIT2_E, symObjAddr: 0x1C74, symBinAddr: 0x1000023B4, symSize: 0x30 }
  - { offset: 0x24C6A, size: 0x8, addend: 0x0, symName: __ZSt4copyIPSt6vectorIiSaIiEES3_ET0_T_S5_S4_, symObjAddr: 0x1BDC, symBinAddr: 0x10000231C, symSize: 0x98 }
  - { offset: 0x24E0E, size: 0x8, addend: 0x0, symName: __ZNSt6vectorIS_IiSaIiEESaIS1_EE3endEv, symObjAddr: 0x1BAC, symBinAddr: 0x1000022EC, symSize: 0x30 }
  - { offset: 0x24E5E, size: 0x8, addend: 0x0, symName: __ZSt4copyIN9__gnu_cxx17__normal_iteratorIPKSt6vectorIiSaIiEES2_IS4_SaIS4_EEEENS1_IPS4_S8_EEET0_T_SD_SC_, symObjAddr: 0x1B04, symBinAddr: 0x100002244, symSize: 0xA8 }
  - { offset: 0x24FFF, size: 0x8, addend: 0x0, symName: __ZNSt6vectorIS_IiSaIiEESaIS1_EE5beginEv, symObjAddr: 0x1AD8, symBinAddr: 0x100002218, symSize: 0x2C }
  - { offset: 0x25053, size: 0x8, addend: 0x0, symName: __ZNSt6vectorIS_IiSaIiEESaIS1_EE20_M_allocate_and_copyIN9__gnu_cxx17__normal_iteratorIPKS1_S3_EEEEPS1_mT_SB_, symObjAddr: 0x1A34, symBinAddr: 0x100002174, symSize: 0xA4 }
  - { offset: 0x250CA, size: 0x8, addend: 0x0, symName: __ZNKSt6vectorIS_IiSaIiEESaIS1_EE3endEv, symObjAddr: 0x1A04, symBinAddr: 0x100002144, symSize: 0x30 }
  - { offset: 0x2511E, size: 0x8, addend: 0x0, symName: __ZNKSt6vectorIS_IiSaIiEESaIS1_EE5beginEv, symObjAddr: 0x19D8, symBinAddr: 0x100002118, symSize: 0x2C }
  - { offset: 0x25172, size: 0x8, addend: 0x0, symName: __ZNKSt6vectorIS_IiSaIiEESaIS1_EE8capacityEv, symObjAddr: 0x198C, symBinAddr: 0x1000020CC, symSize: 0x4C }
  - { offset: 0x251DA, size: 0x8, addend: 0x0, symName: __ZNSt6vectorIS_IiSaIiEESaIS1_EE5clearEv, symObjAddr: 0x1960, symBinAddr: 0x1000020A0, symSize: 0x2C }
  - { offset: 0x25216, size: 0x8, addend: 0x0, symName: __ZNKSt12_Vector_baseISt6vectorIiSaIiEESaIS2_EE19_M_get_Tp_allocatorEv, symObjAddr: 0x194C, symBinAddr: 0x10000208C, symSize: 0x14 }
  - { offset: 0x25282, size: 0x8, addend: 0x0, symName: __ZNKSt6vectorIS_IiSaIiEESaIS1_EE4sizeEv, symObjAddr: 0x1900, symBinAddr: 0x100002040, symSize: 0x4C }
  - { offset: 0x252BD, size: 0x8, addend: 0x0, symName: __ZNKSt8_Rb_treeIiSt4pairIKixESt10_Select1stIS2_ESt4lessIiESaIS2_EE13_M_begin_nodeEv, symObjAddr: 0x18C4, symBinAddr: 0x100002004, symSize: 0x3C }
  - { offset: 0x252F8, size: 0x8, addend: 0x0, symName: __ZNSt8_Rb_treeIiSt4pairIKixESt10_Select1stIS2_ESt4lessIiESaIS2_EE8_M_eraseEPSt13_Rb_tree_nodeIS2_E, symObjAddr: 0x1860, symBinAddr: 0x100001FA0, symSize: 0x64 }
  - { offset: 0x25371, size: 0x8, addend: 0x0, symName: __ZNSt15__new_allocatorISt13_Rb_tree_nodeISt4pairIKixEEED2Ev, symObjAddr: 0x184C, symBinAddr: 0x100001F8C, symSize: 0x14 }
  - { offset: 0x253B1, size: 0x8, addend: 0x0, symName: __ZNSt20_Rb_tree_key_compareISt4lessIiEEC2Ev, symObjAddr: 0x1838, symBinAddr: 0x100001F78, symSize: 0x14 }
  - { offset: 0x253ED, size: 0x8, addend: 0x0, symName: __ZNSt12_Vector_baseISt6vectorIiSaIiEESaIS2_EE13_M_deallocateEPS2_m, symObjAddr: 0x17E0, symBinAddr: 0x100001F20, symSize: 0x58 }
  - { offset: 0x25489, size: 0x8, addend: 0x0, symName: __ZNSt12_Vector_baseISt6vectorIiSaIiEESaIS2_EE17_Vector_impl_dataC2Ev, symObjAddr: 0x17B4, symBinAddr: 0x100001EF4, symSize: 0x2C }
  - { offset: 0x254EA, size: 0x8, addend: 0x0, symName: __ZNSt12_Vector_baseISt6vectorIiSaIiEESaIS2_EE19_M_get_Tp_allocatorEv, symObjAddr: 0x17A0, symBinAddr: 0x100001EE0, symSize: 0x14 }
  - { offset: 0x25514, size: 0x8, addend: 0x0, symName: __ZNSt6vectorIS_IiSaIiEESaIS1_EE18_M_fill_initializeEmRKS1_, symObjAddr: 0x1748, symBinAddr: 0x100001E88, symSize: 0x58 }
  - { offset: 0x25596, size: 0x8, addend: 0x0, symName: __ZNSt12_Vector_baseISt6vectorIiSaIiEESaIS2_EEC2EmRKS3_, symObjAddr: 0x16F4, symBinAddr: 0x100001E34, symSize: 0x54 }
  - { offset: 0x255CA, size: 0x8, addend: 0x0, symName: __ZNSt6vectorIS_IiSaIiEESaIS1_EE17_S_check_init_lenEmRKS2_, symObjAddr: 0x1670, symBinAddr: 0x100001DB0, symSize: 0x84 }
  - { offset: 0x2569A, size: 0x8, addend: 0x0, symName: __ZNSt15__new_allocatorISt6vectorIiSaIiEEED2Ev, symObjAddr: 0x165C, symBinAddr: 0x100001D9C, symSize: 0x14 }
  - { offset: 0x25711, size: 0x8, addend: 0x0, symName: __ZNSt12_Vector_baseIiSaIiEE19_M_get_Tp_allocatorEv, symObjAddr: 0x1648, symBinAddr: 0x100001D88, symSize: 0x14 }
  - { offset: 0x2573B, size: 0x8, addend: 0x0, symName: __ZNSt6vectorIiSaIiEE21_M_default_initializeEm, symObjAddr: 0x15F8, symBinAddr: 0x100001D38, symSize: 0x50 }
  - { offset: 0x25790, size: 0x8, addend: 0x0, symName: __ZNSt12_Vector_baseIiSaIiEED2Ev, symObjAddr: 0x15A8, symBinAddr: 0x100001CE8, symSize: 0x50 }
  - { offset: 0x257EC, size: 0x8, addend: 0x0, symName: __ZNSt12_Vector_baseIiSaIiEEC2EmRKS0_, symObjAddr: 0x1554, symBinAddr: 0x100001C94, symSize: 0x54 }
  - { offset: 0x25841, size: 0x8, addend: 0x0, symName: __ZNSt12_Vector_baseIiSaIiEE12_Vector_implD1Ev, symObjAddr: 0x1528, symBinAddr: 0x100001C68, symSize: 0x2C }
  - { offset: 0x25886, size: 0x8, addend: 0x0, symName: __ZNSt6vectorIiSaIiEE17_S_check_init_lenEmRKS0_, symObjAddr: 0x14A4, symBinAddr: 0x100001BE4, symSize: 0x84 }
  - { offset: 0x25956, size: 0x8, addend: 0x0, symName: __ZNSt15__new_allocatorIiED2Ev, symObjAddr: 0x1490, symBinAddr: 0x100001BD0, symSize: 0x14 }
  - { offset: 0x25992, size: 0x8, addend: 0x0, symName: __ZNSt3mapIixSt4lessIiESaISt4pairIKixEEEixERS3_, symObjAddr: 0x13A4, symBinAddr: 0x100001AE4, symSize: 0xEC }
  - { offset: 0x25A06, size: 0x8, addend: 0x0, symName: __ZNSt6vectorIS_IiSaIiEESaIS1_EEC1ERKS3_, symObjAddr: 0x1290, symBinAddr: 0x1000019D0, symSize: 0x114 }
  - { offset: 0x25B19, size: 0x8, addend: 0x0, symName: __ZNKSt6vectorIiSaIiEEixEm, symObjAddr: 0x120C, symBinAddr: 0x10000194C, symSize: 0x84 }
  - { offset: 0x25B6F, size: 0x8, addend: 0x0, symName: __ZNKSt6vectorIS_IiSaIiEESaIS1_EEixEm, symObjAddr: 0x117C, symBinAddr: 0x1000018BC, symSize: 0x90 }
  - { offset: 0x25BC1, size: 0x8, addend: 0x0, symName: __ZSt3gcdIiiENSt11common_typeIJT_T0_EE4typeES1_S2_, symObjAddr: 0x1140, symBinAddr: 0x100001880, symSize: 0x3C }
  - { offset: 0x25C3D, size: 0x8, addend: 0x0, symName: __ZNSt8__detail7__abs_rIiiEET_T0_, symObjAddr: 0x10B8, symBinAddr: 0x1000017F8, symSize: 0x88 }
  - { offset: 0x25CAC, size: 0x8, addend: 0x0, symName: __ZSt3maxIiERKT_S2_S2_, symObjAddr: 0x1080, symBinAddr: 0x1000017C0, symSize: 0x38 }
  - { offset: 0x25CF4, size: 0x8, addend: 0x0, symName: __ZNSt6vectorIiSaIiEEixEm, symObjAddr: 0xFFC, symBinAddr: 0x10000173C, symSize: 0x84 }
  - { offset: 0x25D4A, size: 0x8, addend: 0x0, symName: __ZNSt6vectorIS_IiSaIiEESaIS1_EEaSERKS3_, symObjAddr: 0xC64, symBinAddr: 0x1000013A4, symSize: 0x398 }
  - { offset: 0x25F0C, size: 0x8, addend: 0x0, symName: __ZNSt6vectorIiSaIiEE3endEv, symObjAddr: 0xC34, symBinAddr: 0x100001374, symSize: 0x30 }
  - { offset: 0x25F60, size: 0x8, addend: 0x0, symName: __ZNSt6vectorIiSaIiEE5beginEv, symObjAddr: 0xC08, symBinAddr: 0x100001348, symSize: 0x2C }
  - { offset: 0x25FB4, size: 0x8, addend: 0x0, symName: __ZNSt6vectorIS_IiSaIiEESaIS1_EEixEm, symObjAddr: 0xB78, symBinAddr: 0x1000012B8, symSize: 0x90 }
  - { offset: 0x26024, size: 0x8, addend: 0x0, symName: __ZNSt8_Rb_treeIiSt4pairIKixESt10_Select1stIS2_ESt4lessIiESaIS2_EED1Ev, symObjAddr: 0xB44, symBinAddr: 0x100001284, symSize: 0x34 }
  - { offset: 0x2607A, size: 0x8, addend: 0x0, symName: __ZNSt8_Rb_treeIiSt4pairIKixESt10_Select1stIS2_ESt4lessIiESaIS2_EE13_Rb_tree_implIS6_Lb1EEC1Ev, symObjAddr: 0xB00, symBinAddr: 0x100001240, symSize: 0x44 }
  - { offset: 0x26101, size: 0x8, addend: 0x0, symName: __ZNSt12_Vector_baseISt6vectorIiSaIiEESaIS2_EED2Ev, symObjAddr: 0xAA4, symBinAddr: 0x1000011E4, symSize: 0x5C }
  - { offset: 0x26141, size: 0x8, addend: 0x0, symName: __ZNSt12_Vector_baseISt6vectorIiSaIiEESaIS2_EE12_Vector_implC1Ev, symObjAddr: 0xA6C, symBinAddr: 0x1000011AC, symSize: 0x38 }
  - { offset: 0x261C7, size: 0x8, addend: 0x0, symName: __ZNSt6vectorIS_IiSaIiEESaIS1_EED1Ev, symObjAddr: 0xA10, symBinAddr: 0x100001150, symSize: 0x5C }
  - { offset: 0x26267, size: 0x8, addend: 0x0, symName: __ZNSt6vectorIS_IiSaIiEESaIS1_EEC1EmRKS1_RKS2_, symObjAddr: 0x9A0, symBinAddr: 0x1000010E0, symSize: 0x70 }
  - { offset: 0x262EE, size: 0x8, addend: 0x0, symName: __ZNSt6vectorIiSaIiEED1Ev, symObjAddr: 0x944, symBinAddr: 0x100001084, symSize: 0x5C }
  - { offset: 0x26380, size: 0x8, addend: 0x0, symName: __ZNSt6vectorIiSaIiEEC1EmRKS0_, symObjAddr: 0x8DC, symBinAddr: 0x10000101C, symSize: 0x68 }
  - { offset: 0x263E7, size: 0x8, addend: 0x0, symName: _main, symObjAddr: 0x3E0, symBinAddr: 0x100000B20, symSize: 0x4FC }
  - { offset: 0x2649F, size: 0x8, addend: 0x0, symName: __ZZ4mainENKUliiE_clEii, symObjAddr: 0x230, symBinAddr: 0x100000970, symSize: 0xA8 }
  - { offset: 0x2652A, size: 0x8, addend: 0x0, symName: __ZZ4mainENUliiE_D1Ev, symObjAddr: 0x2D8, symBinAddr: 0x100000A18, symSize: 0x20 }
  - { offset: 0x265CE, size: 0x8, addend: 0x0, symName: __ZZ4mainENKUliiiE_clEiii, symObjAddr: 0x2F8, symBinAddr: 0x100000A38, symSize: 0xE8 }
  - { offset: 0x26A64, size: 0x8, addend: 0x0, symName: __ZNSt3mapIixSt4lessIiESaISt4pairIKixEEED1Ev, symObjAddr: 0x210, symBinAddr: 0x100000950, symSize: 0x20 }
  - { offset: 0x26AA4, size: 0x8, addend: 0x0, symName: __ZNSt3mapIixSt4lessIiESaISt4pairIKixEEEC1Ev, symObjAddr: 0x1F0, symBinAddr: 0x100000930, symSize: 0x20 }
  - { offset: 0x26AE4, size: 0x8, addend: 0x0, symName: __ZNSt8_Rb_treeIiSt4pairIKixESt10_Select1stIS2_ESt4lessIiESaIS2_EEC1Ev, symObjAddr: 0x1D0, symBinAddr: 0x100000910, symSize: 0x20 }
  - { offset: 0x26B28, size: 0x8, addend: 0x0, symName: __ZNSt8_Rb_treeIiSt4pairIKixESt10_Select1stIS2_ESt4lessIiESaIS2_EE13_Rb_tree_implIS6_Lb1EED1Ev, symObjAddr: 0x1A4, symBinAddr: 0x1000008E4, symSize: 0x2C }
  - { offset: 0x26B8C, size: 0x8, addend: 0x0, symName: __ZNSt6vectorIS_IiSaIiEESaIS1_EEC1Ev, symObjAddr: 0x184, symBinAddr: 0x1000008C4, symSize: 0x20 }
  - { offset: 0x26BCC, size: 0x8, addend: 0x0, symName: __ZNSt12_Vector_baseISt6vectorIiSaIiEESaIS2_EEC2Ev, symObjAddr: 0x164, symBinAddr: 0x1000008A4, symSize: 0x20 }
  - { offset: 0x26C0F, size: 0x8, addend: 0x0, symName: __ZNSt12_Vector_baseISt6vectorIiSaIiEESaIS2_EE12_Vector_implD1Ev, symObjAddr: 0x138, symBinAddr: 0x100000878, symSize: 0x2C }
  - { offset: 0x26C5F, size: 0x8, addend: 0x0, symName: __Z3lg2i, symObjAddr: 0x118, symBinAddr: 0x100000858, symSize: 0x20 }
  - { offset: 0x26C88, size: 0x8, addend: 0x0, symName: __ZSt13__countr_zeroIjEiT_, symObjAddr: 0xF4, symBinAddr: 0x100000834, symSize: 0x24 }
  - { offset: 0x26CD0, size: 0x8, addend: 0x0, symName: __ZNSt15_Rb_tree_header8_M_resetEv, symObjAddr: 0xB8, symBinAddr: 0x1000007F8, symSize: 0x3C }
  - { offset: 0x26D14, size: 0x8, addend: 0x0, symName: __ZNSt15_Rb_tree_headerC2Ev, symObjAddr: 0x90, symBinAddr: 0x1000007D0, symSize: 0x28 }
  - { offset: 0x26D3A, size: 0x8, addend: 0x0, symName: __ZNKSt18_Rb_tree_node_base11_M_base_ptrEv, symObjAddr: 0x7C, symBinAddr: 0x1000007BC, symSize: 0x14 }
  - { offset: 0x26D60, size: 0x8, addend: 0x0, symName: __ZSt3minImERKT_S2_S2_, symObjAddr: 0x44, symBinAddr: 0x100000784, symSize: 0x38 }
  - { offset: 0x26DA9, size: 0x8, addend: 0x0, symName: __ZdlPvS_, symObjAddr: 0x2C, symBinAddr: 0x10000076C, symSize: 0x18 }
  - { offset: 0x26DDF, size: 0x8, addend: 0x0, symName: __ZnwmPv, symObjAddr: 0x14, symBinAddr: 0x100000754, symSize: 0x18 }
  - { offset: 0x26E11, size: 0x8, addend: 0x0, symName: __ZSt17__size_to_integerm, symObjAddr: 0x0, symBinAddr: 0x100000740, symSize: 0x14 }
...
