---
triple:          'arm64-apple-darwin'
binary-path:     '/Users/shayan/Documents/Shayan-Documents/My-Programming/C++/USACO & CP/USACO & CP/USACO & CP/Topics/Graph Traversals/run'
relocations:
  - { offset: 0x23CBF, size: 0x8, addend: 0x0, symName: __ZStL8__ioinit, symObjAddr: 0xB36AE, symBinAddr: 0x100014004, symSize: 0x0 }
  - { offset: 0x24221, size: 0x8, addend: 0x0, symName: _lit, symObjAddr: 0xB36B0, symBinAddr: 0x100014008, symSize: 0x0 }
  - { offset: 0x24337, size: 0x8, addend: 0x0, symName: _state, symObjAddr: 0xB36C8, symBinAddr: 0x100014020, symSize: 0x0 }
  - { offset: 0x2446F, size: 0x8, addend: 0x0, symName: _switches, symObjAddr: 0xB36E0, symBinAddr: 0x100014038, symSize: 0x0 }
  - { offset: 0x24486, size: 0x8, addend: 0x0, symName: _ans, symObjAddr: 0x6620, symBinAddr: 0x100014000, symSize: 0x0 }
  - { offset: 0x24A05, size: 0x8, addend: 0x0, symName: __GLOBAL__sub_I_lightson.cpp, symObjAddr: 0x703C, symBinAddr: 0x100006E64, symSize: 0x14 }
  - { offset: 0x24A1D, size: 0x8, addend: 0x0, symName: __Z41__static_initialization_and_destruction_0v, symObjAddr: 0x6F88, symBinAddr: 0x100006DB0, symSize: 0xB4 }
  - { offset: 0x24A5D, size: 0x8, addend: 0x0, symName: __ZNSt19_UninitDestroyGuardIPSt4pairIiiEvE7releaseEv, symObjAddr: 0x6604, symBinAddr: 0x100006D94, symSize: 0x1C }
  - { offset: 0x24A83, size: 0x8, addend: 0x0, symName: __ZSt10_ConstructISt4pairIiiEJRKS1_EEvPT_DpOT0_, symObjAddr: 0x65A4, symBinAddr: 0x100006D34, symSize: 0x60 }
  - { offset: 0x24B7C, size: 0x8, addend: 0x0, symName: __ZNSt19_UninitDestroyGuardIPSt4pairIiiEvED1Ev, symObjAddr: 0x654C, symBinAddr: 0x100006CDC, symSize: 0x58 }
  - { offset: 0x24BC9, size: 0x8, addend: 0x0, symName: __ZNSt19_UninitDestroyGuardIPSt4pairIiiEvEC1ERS2_, symObjAddr: 0x6518, symBinAddr: 0x100006CA8, symSize: 0x34 }
  - { offset: 0x24C0F, size: 0x8, addend: 0x0, symName: __ZSt16__do_uninit_copyIN9__gnu_cxx17__normal_iteratorIPKSt4pairIiiESt6vectorIS3_SaIS3_EEEES9_PS3_ET1_T_T0_SB_, symObjAddr: 0x6464, symBinAddr: 0x100006BF4, symSize: 0xB4 }
  - { offset: 0x24DBE, size: 0x8, addend: 0x0, symName: __ZSt18uninitialized_copyIN9__gnu_cxx17__normal_iteratorIPKSt4pairIiiESt6vectorIS3_SaIS3_EEEEPS3_ET0_T_SC_SB_, symObjAddr: 0x6438, symBinAddr: 0x100006BC8, symSize: 0x2C }
  - { offset: 0x24E1D, size: 0x8, addend: 0x0, symName: __ZNSt12_Vector_baseISt4pairIiiESaIS1_EE17_M_create_storageEm, symObjAddr: 0x63D8, symBinAddr: 0x100006B68, symSize: 0x60 }
  - { offset: 0x24E7F, size: 0x8, addend: 0x0, symName: __ZNSt12_Vector_baseISt4pairIiiESaIS1_EE12_Vector_implC1ERKS2_, symObjAddr: 0x638C, symBinAddr: 0x100006B1C, symSize: 0x4C }
  - { offset: 0x24FD5, size: 0x8, addend: 0x0, symName: __ZSt22__uninitialized_copy_aIN9__gnu_cxx17__normal_iteratorIPKSt4pairIiiESt6vectorIS3_SaIS3_EEEES9_PS3_S3_ET1_T_T0_SB_RSaIT2_E, symObjAddr: 0x635C, symBinAddr: 0x100006AEC, symSize: 0x30 }
  - { offset: 0x25088, size: 0x8, addend: 0x0, symName: __ZNSt12_Vector_baseISt4pairIiiESaIS1_EEC2EmRKS2_, symObjAddr: 0x6308, symBinAddr: 0x100006A98, symSize: 0x54 }
  - { offset: 0x250D1, size: 0x8, addend: 0x0, symName: __ZSt14__copy_move_a2ILb0ESt19_Bit_const_iteratorS0_St13_Bit_iteratorET2_T0_T1_S2_, symObjAddr: 0x6244, symBinAddr: 0x1000069D4, symSize: 0xC4 }
  - { offset: 0x2516A, size: 0x8, addend: 0x0, symName: __ZSt14__copy_move_a2ILb0EPmS0_S0_ET2_T0_T1_S1_, symObjAddr: 0x6118, symBinAddr: 0x1000068A8, symSize: 0x12C }
  - { offset: 0x25316, size: 0x8, addend: 0x0, symName: __ZNSt6vectorISt4pairIiiESaIS1_EEC1ERKS3_, symObjAddr: 0x6004, symBinAddr: 0x100006794, symSize: 0x114 }
  - { offset: 0x255A0, size: 0x8, addend: 0x0, symName: __ZSt10_ConstructISt6vectorISt4pairIiiESaIS2_EEJRKS4_EEvPT_DpOT0_, symObjAddr: 0x5F68, symBinAddr: 0x1000066F8, symSize: 0x9C }
  - { offset: 0x25710, size: 0x8, addend: 0x0, symName: __ZSt12__miter_baseISt19_Bit_const_iteratorET_S1_, symObjAddr: 0x5F2C, symBinAddr: 0x1000066BC, symSize: 0x3C }
  - { offset: 0x25791, size: 0x8, addend: 0x0, symName: __ZSt12__miter_baseIPmET_S1_, symObjAddr: 0x5F18, symBinAddr: 0x1000066A8, symSize: 0x14 }
  - { offset: 0x257C4, size: 0x8, addend: 0x0, symName: __ZSt16__do_uninit_copyIN9__gnu_cxx17__normal_iteratorIPKSt6vectorISt4pairIiiESaIS4_EES2_IS6_SaIS6_EEEESB_PS6_ET1_T_T0_SD_, symObjAddr: 0x5E4C, symBinAddr: 0x1000065DC, symSize: 0xCC }
  - { offset: 0x25936, size: 0x8, addend: 0x0, symName: __ZSt18uninitialized_copyIN9__gnu_cxx17__normal_iteratorIPKiSt6vectorIiSaIiEEEEPiET0_T_SA_S9_, symObjAddr: 0x5DB4, symBinAddr: 0x100006544, symSize: 0x98 }
  - { offset: 0x25B2D, size: 0x8, addend: 0x0, symName: __ZSt9__fill_a1IPiiEvT_S1_RKT0_, symObjAddr: 0x5D54, symBinAddr: 0x1000064E4, symSize: 0x60 }
  - { offset: 0x25BBA, size: 0x8, addend: 0x0, symName: __ZSt4copyISt19_Bit_const_iteratorSt13_Bit_iteratorET0_T_S3_S2_, symObjAddr: 0x5C0C, symBinAddr: 0x10000639C, symSize: 0x148 }
  - { offset: 0x25D27, size: 0x8, addend: 0x0, symName: __ZSt4copyIPmS0_ET0_T_S2_S1_, symObjAddr: 0x5B74, symBinAddr: 0x100006304, symSize: 0x98 }
  - { offset: 0x25EA2, size: 0x8, addend: 0x0, symName: __ZSt18uninitialized_copyIN9__gnu_cxx17__normal_iteratorIPKSt6vectorISt4pairIiiESaIS4_EES2_IS6_SaIS6_EEEEPS6_ET0_T_SE_SD_, symObjAddr: 0x5B48, symBinAddr: 0x1000062D8, symSize: 0x2C }
  - { offset: 0x25F90, size: 0x8, addend: 0x0, symName: __ZSt22__uninitialized_copy_aIN9__gnu_cxx17__normal_iteratorIPKiSt6vectorIiSaIiEEEES7_PiiET1_T_T0_S9_RSaIT2_E, symObjAddr: 0x5B18, symBinAddr: 0x1000062A8, symSize: 0x30 }
  - { offset: 0x2600D, size: 0x8, addend: 0x0, symName: __ZNKSt6vectorIiSaIiEE3endEv, symObjAddr: 0x5AE8, symBinAddr: 0x100006278, symSize: 0x30 }
  - { offset: 0x26061, size: 0x8, addend: 0x0, symName: __ZNKSt6vectorIiSaIiEE5beginEv, symObjAddr: 0x5ABC, symBinAddr: 0x10000624C, symSize: 0x2C }
  - { offset: 0x260CA, size: 0x8, addend: 0x0, symName: __ZNKSt12_Vector_baseIiSaIiEE19_M_get_Tp_allocatorEv, symObjAddr: 0x5AA8, symBinAddr: 0x100006238, symSize: 0x14 }
  - { offset: 0x26138, size: 0x8, addend: 0x0, symName: __ZNSt6vectorIbSaIbEE5beginEv, symObjAddr: 0x5A58, symBinAddr: 0x1000061E8, symSize: 0x50 }
  - { offset: 0x26162, size: 0x8, addend: 0x0, symName: __ZNSt6vectorIbSaIbEE15_M_copy_alignedESt19_Bit_const_iteratorS2_St13_Bit_iterator, symObjAddr: 0x59A4, symBinAddr: 0x100006134, symSize: 0xB4 }
  - { offset: 0x2620D, size: 0x8, addend: 0x0, symName: __ZNKSt13_Bvector_baseISaIbEE20_M_get_Bit_allocatorEv, symObjAddr: 0x5990, symBinAddr: 0x100006120, symSize: 0x14 }
  - { offset: 0x26233, size: 0x8, addend: 0x0, symName: __ZSt22__uninitialized_copy_aIN9__gnu_cxx17__normal_iteratorIPKSt6vectorISt4pairIiiESaIS4_EES2_IS6_SaIS6_EEEESB_PS6_S6_ET1_T_T0_SD_RSaIT2_E, symObjAddr: 0x5960, symBinAddr: 0x1000060F0, symSize: 0x30 }
  - { offset: 0x262B0, size: 0x8, addend: 0x0, symName: __ZNKSt6vectorIS_ISt4pairIiiESaIS1_EESaIS3_EE3endEv, symObjAddr: 0x5930, symBinAddr: 0x1000060C0, symSize: 0x30 }
  - { offset: 0x26304, size: 0x8, addend: 0x0, symName: __ZNKSt6vectorIS_ISt4pairIiiESaIS1_EESaIS3_EE5beginEv, symObjAddr: 0x5904, symBinAddr: 0x100006094, symSize: 0x2C }
  - { offset: 0x2636D, size: 0x8, addend: 0x0, symName: __ZNKSt12_Vector_baseISt6vectorISt4pairIiiESaIS2_EESaIS4_EE19_M_get_Tp_allocatorEv, symObjAddr: 0x58F0, symBinAddr: 0x100006080, symSize: 0x14 }
  - { offset: 0x263B1, size: 0x8, addend: 0x0, symName: __ZNSt15__new_allocatorISt4pairIiiEED2Ev, symObjAddr: 0x58DC, symBinAddr: 0x10000606C, symSize: 0x14 }
  - { offset: 0x263F1, size: 0x8, addend: 0x0, symName: __ZNSt12_Vector_baseISt4pairIiiESaIS1_EE17_Vector_impl_dataC2Ev, symObjAddr: 0x58B0, symBinAddr: 0x100006040, symSize: 0x2C }
  - { offset: 0x26429, size: 0x8, addend: 0x0, symName: __ZSt19__relocate_object_aISt4pairIiiES1_SaIS1_EEvPT_PT0_RT1_, symObjAddr: 0x57D4, symBinAddr: 0x100005F64, symSize: 0xDC }
  - { offset: 0x26610, size: 0x8, addend: 0x0, symName: __ZNSt15__new_allocatorISt4pairIiiEE10deallocateEPS1_m, symObjAddr: 0x57A4, symBinAddr: 0x100005F34, symSize: 0x30 }
  - { offset: 0x266AE, size: 0x8, addend: 0x0, symName: __ZNSt6vectorIiSaIiEEC1ERKS1_, symObjAddr: 0x5690, symBinAddr: 0x100005E20, symSize: 0x114 }
  - { offset: 0x26894, size: 0x8, addend: 0x0, symName: __ZNSt6vectorIbSaIbEEC1ERKS1_, symObjAddr: 0x5570, symBinAddr: 0x100005D00, symSize: 0x120 }
  - { offset: 0x26A91, size: 0x8, addend: 0x0, symName: __ZNSt6vectorIS_ISt4pairIiiESaIS1_EESaIS3_EEC1ERKS5_, symObjAddr: 0x545C, symBinAddr: 0x100005BEC, symSize: 0x114 }
  - { offset: 0x26BC4, size: 0x8, addend: 0x0, symName: __ZSt8_DestroyIPSt4pairIiiEEvT_S3_, symObjAddr: 0x5444, symBinAddr: 0x100005BD4, symSize: 0x18 }
  - { offset: 0x26C3A, size: 0x8, addend: 0x0, symName: __ZNSt12_Vector_baseISt4pairIiiESaIS1_EE12_Vector_implC1Ev, symObjAddr: 0x540C, symBinAddr: 0x100005B9C, symSize: 0x38 }
  - { offset: 0x26CDC, size: 0x8, addend: 0x0, symName: __ZSt14__relocate_a_1IPSt4pairIiiES2_SaIS1_EET0_T_S5_S4_RT1_, symObjAddr: 0x5394, symBinAddr: 0x100005B24, symSize: 0x78 }
  - { offset: 0x26E02, size: 0x8, addend: 0x0, symName: __ZNSt15__new_allocatorISt4pairIiiEE8allocateEmPKv, symObjAddr: 0x5318, symBinAddr: 0x100005AA8, symSize: 0x7C }
  - { offset: 0x26E78, size: 0x8, addend: 0x0, symName: __ZNKSt12_Vector_baseISt4pairIiiESaIS1_EE19_M_get_Tp_allocatorEv, symObjAddr: 0x5304, symBinAddr: 0x100005A94, symSize: 0x14 }
  - { offset: 0x26E9E, size: 0x8, addend: 0x0, symName: __ZNSt6vectorISt4pairIiiESaIS1_EE11_S_max_sizeERKS2_, symObjAddr: 0x52B0, symBinAddr: 0x100005A40, symSize: 0x54 }
  - { offset: 0x26F59, size: 0x8, addend: 0x0, symName: __ZNSt19_UninitDestroyGuardIPSt6vectorIiSaIiEEvE7releaseEv, symObjAddr: 0x5294, symBinAddr: 0x100005A24, symSize: 0x1C }
  - { offset: 0x26F7F, size: 0x8, addend: 0x0, symName: __ZSt10_ConstructISt6vectorIiSaIiEEJRKS2_EEvPT_DpOT0_, symObjAddr: 0x51F8, symBinAddr: 0x100005988, symSize: 0x9C }
  - { offset: 0x27010, size: 0x8, addend: 0x0, symName: __ZNSt19_UninitDestroyGuardIPSt6vectorIiSaIiEEvED1Ev, symObjAddr: 0x51A0, symBinAddr: 0x100005930, symSize: 0x58 }
  - { offset: 0x2705D, size: 0x8, addend: 0x0, symName: __ZNSt19_UninitDestroyGuardIPSt6vectorIiSaIiEEvEC1ERS3_, symObjAddr: 0x516C, symBinAddr: 0x1000058FC, symSize: 0x34 }
  - { offset: 0x2708C, size: 0x8, addend: 0x0, symName: __ZNSt15__new_allocatorISt6vectorIiSaIiEEE8allocateEmPKv, symObjAddr: 0x50DC, symBinAddr: 0x10000586C, symSize: 0x90 }
  - { offset: 0x27161, size: 0x8, addend: 0x0, symName: __ZSt10_ConstructIiJEEvPT_DpOT0_, symObjAddr: 0x5090, symBinAddr: 0x100005820, symSize: 0x4C }
  - { offset: 0x271C3, size: 0x8, addend: 0x0, symName: __ZNSt15__new_allocatorIiE8allocateEmPKv, symObjAddr: 0x5014, symBinAddr: 0x1000057A4, symSize: 0x7C }
  - { offset: 0x2724F, size: 0x8, addend: 0x0, symName: __ZNSt19_UninitDestroyGuardIPSt6vectorIbSaIbEEvE7releaseEv, symObjAddr: 0x4FF8, symBinAddr: 0x100005788, symSize: 0x1C }
  - { offset: 0x27275, size: 0x8, addend: 0x0, symName: __ZSt10_ConstructISt6vectorIbSaIbEEJRKS2_EEvPT_DpOT0_, symObjAddr: 0x4F5C, symBinAddr: 0x1000056EC, symSize: 0x9C }
  - { offset: 0x27306, size: 0x8, addend: 0x0, symName: __ZNSt19_UninitDestroyGuardIPSt6vectorIbSaIbEEvED1Ev, symObjAddr: 0x4F04, symBinAddr: 0x100005694, symSize: 0x58 }
  - { offset: 0x27353, size: 0x8, addend: 0x0, symName: __ZNSt19_UninitDestroyGuardIPSt6vectorIbSaIbEEvEC1ERS3_, symObjAddr: 0x4ED0, symBinAddr: 0x100005660, symSize: 0x34 }
  - { offset: 0x27382, size: 0x8, addend: 0x0, symName: __ZNSt15__new_allocatorISt6vectorIbSaIbEEE8allocateEmPKv, symObjAddr: 0x4E40, symBinAddr: 0x1000055D0, symSize: 0x90 }
  - { offset: 0x2740E, size: 0x8, addend: 0x0, symName: __ZNSt15__new_allocatorImE8allocateEmPKv, symObjAddr: 0x4DC4, symBinAddr: 0x100005554, symSize: 0x7C }
  - { offset: 0x2749F, size: 0x8, addend: 0x0, symName: __ZNSt19_UninitDestroyGuardIPSt6vectorIS0_ISt4pairIiiESaIS2_EESaIS4_EEvE7releaseEv, symObjAddr: 0x4DA8, symBinAddr: 0x100005538, symSize: 0x1C }
  - { offset: 0x274C5, size: 0x8, addend: 0x0, symName: __ZSt10_ConstructISt6vectorIS0_ISt4pairIiiESaIS2_EESaIS4_EEJRKS6_EEvPT_DpOT0_, symObjAddr: 0x4D0C, symBinAddr: 0x10000549C, symSize: 0x9C }
  - { offset: 0x27556, size: 0x8, addend: 0x0, symName: __ZNSt19_UninitDestroyGuardIPSt6vectorIS0_ISt4pairIiiESaIS2_EESaIS4_EEvED1Ev, symObjAddr: 0x4CB4, symBinAddr: 0x100005444, symSize: 0x58 }
  - { offset: 0x275A3, size: 0x8, addend: 0x0, symName: __ZNSt19_UninitDestroyGuardIPSt6vectorIS0_ISt4pairIiiESaIS2_EESaIS4_EEvEC1ERS7_, symObjAddr: 0x4C80, symBinAddr: 0x100005410, symSize: 0x34 }
  - { offset: 0x275D2, size: 0x8, addend: 0x0, symName: __ZNSt15__new_allocatorISt6vectorIS0_ISt4pairIiiESaIS2_EESaIS4_EEE8allocateEmPKv, symObjAddr: 0x4BF0, symBinAddr: 0x100005380, symSize: 0x90 }
  - { offset: 0x276B3, size: 0x8, addend: 0x0, symName: __ZNSt12_Vector_baseISt4pairIiiESaIS1_EED2Ev, symObjAddr: 0x4BA0, symBinAddr: 0x100005330, symSize: 0x50 }
  - { offset: 0x276D9, size: 0x8, addend: 0x0, symName: __ZNSt19_UninitDestroyGuardIPSt6vectorISt4pairIiiESaIS2_EEvE7releaseEv, symObjAddr: 0x4B84, symBinAddr: 0x100005314, symSize: 0x1C }
  - { offset: 0x276FF, size: 0x8, addend: 0x0, symName: __ZSt10_ConstructISt6vectorISt4pairIiiESaIS2_EEJEEvPT_DpOT0_, symObjAddr: 0x4B24, symBinAddr: 0x1000052B4, symSize: 0x60 }
  - { offset: 0x2775D, size: 0x8, addend: 0x0, symName: __ZNSt6vectorISt4pairIiiESaIS1_EEC1Ev, symObjAddr: 0x4B04, symBinAddr: 0x100005294, symSize: 0x20 }
  - { offset: 0x2779D, size: 0x8, addend: 0x0, symName: __ZNSt12_Vector_baseISt4pairIiiESaIS1_EEC2Ev, symObjAddr: 0x4AE4, symBinAddr: 0x100005274, symSize: 0x20 }
  - { offset: 0x277E0, size: 0x8, addend: 0x0, symName: __ZNSt12_Vector_baseISt4pairIiiESaIS1_EE12_Vector_implD1Ev, symObjAddr: 0x4AB8, symBinAddr: 0x100005248, symSize: 0x2C }
  - { offset: 0x27843, size: 0x8, addend: 0x0, symName: __ZNSt19_UninitDestroyGuardIPSt6vectorISt4pairIiiESaIS2_EEvED1Ev, symObjAddr: 0x4A60, symBinAddr: 0x1000051F0, symSize: 0x58 }
  - { offset: 0x27890, size: 0x8, addend: 0x0, symName: __ZNSt19_UninitDestroyGuardIPSt6vectorISt4pairIiiESaIS2_EEvEC1ERS5_, symObjAddr: 0x4A2C, symBinAddr: 0x1000051BC, symSize: 0x34 }
  - { offset: 0x278BF, size: 0x8, addend: 0x0, symName: __ZNSt15__new_allocatorISt6vectorISt4pairIiiESaIS2_EEE8allocateEmPKv, symObjAddr: 0x499C, symBinAddr: 0x10000512C, symSize: 0x90 }
  - { offset: 0x27981, size: 0x8, addend: 0x0, symName: __ZNKSt6vectorISt4pairIiiESaIS1_EE3endEv, symObjAddr: 0x496C, symBinAddr: 0x1000050FC, symSize: 0x30 }
  - { offset: 0x279D5, size: 0x8, addend: 0x0, symName: __ZNKSt6vectorISt4pairIiiESaIS1_EE5beginEv, symObjAddr: 0x4940, symBinAddr: 0x1000050D0, symSize: 0x2C }
  - { offset: 0x27A25, size: 0x8, addend: 0x0, symName: __ZSt12__relocate_aIPSt4pairIiiES2_SaIS1_EET0_T_S5_S4_RT1_, symObjAddr: 0x48F4, symBinAddr: 0x100005084, symSize: 0x4C }
  - { offset: 0x27B0D, size: 0x8, addend: 0x0, symName: __ZNSt12_Vector_baseISt4pairIiiESaIS1_EE13_M_deallocateEPS1_m, symObjAddr: 0x489C, symBinAddr: 0x10000502C, symSize: 0x58 }
  - { offset: 0x27BB3, size: 0x8, addend: 0x0, symName: __ZNKSt6vectorISt4pairIiiESaIS1_EE4sizeEv, symObjAddr: 0x485C, symBinAddr: 0x100004FEC, symSize: 0x40 }
  - { offset: 0x27BEE, size: 0x8, addend: 0x0, symName: __ZNKSt6vectorISt4pairIiiESaIS1_EE8max_sizeEv, symObjAddr: 0x483C, symBinAddr: 0x100004FCC, symSize: 0x20 }
  - { offset: 0x27C14, size: 0x8, addend: 0x0, symName: __ZSt18__do_uninit_fill_nIPSt6vectorIiSaIiEEmS2_ET_S4_T0_RKT1_, symObjAddr: 0x4794, symBinAddr: 0x100004F24, symSize: 0xA8 }
  - { offset: 0x27D05, size: 0x8, addend: 0x0, symName: __ZNSt27__uninitialized_default_n_1ILb1EE18__uninit_default_nIPimEET_S3_T0_, symObjAddr: 0x46A0, symBinAddr: 0x100004E30, symSize: 0xF4 }
  - { offset: 0x27E76, size: 0x8, addend: 0x0, symName: __ZNSt15__new_allocatorIiE10deallocateEPim, symObjAddr: 0x4670, symBinAddr: 0x100004E00, symSize: 0x30 }
  - { offset: 0x27EF6, size: 0x8, addend: 0x0, symName: __ZSt18__do_uninit_fill_nIPSt6vectorIbSaIbEEmS2_ET_S4_T0_RKT1_, symObjAddr: 0x45C8, symBinAddr: 0x100004D58, symSize: 0xA8 }
  - { offset: 0x28029, size: 0x8, addend: 0x0, symName: __ZNSt13_Bvector_baseISaIbEE18_Bvector_impl_dataC1Ev, symObjAddr: 0x4594, symBinAddr: 0x100004D24, symSize: 0x34 }
  - { offset: 0x28053, size: 0x8, addend: 0x0, symName: __ZNSt13_Bvector_baseISaIbEE18_Bvector_impl_dataC2Ev, symObjAddr: 0x4560, symBinAddr: 0x100004CF0, symSize: 0x34 }
  - { offset: 0x28098, size: 0x8, addend: 0x0, symName: __ZSt18__do_uninit_fill_nIPSt6vectorIS0_ISt4pairIiiESaIS2_EESaIS4_EEmS6_ET_S8_T0_RKT1_, symObjAddr: 0x44B8, symBinAddr: 0x100004C48, symSize: 0xA8 }
  - { offset: 0x281A7, size: 0x8, addend: 0x0, symName: __ZNSt6vectorISt4pairIiiESaIS1_EED1Ev, symObjAddr: 0x445C, symBinAddr: 0x100004BEC, symSize: 0x5C }
  - { offset: 0x281FF, size: 0x8, addend: 0x0, symName: __ZNSt27__uninitialized_default_n_1ILb0EE18__uninit_default_nIPSt6vectorISt4pairIiiESaIS4_EEmEET_S8_T0_, symObjAddr: 0x43E0, symBinAddr: 0x100004B70, symSize: 0x7C }
  - { offset: 0x28285, size: 0x8, addend: 0x0, symName: __ZNSt15__new_allocatorISt6vectorISt4pairIiiESaIS2_EEE10deallocateEPS4_m, symObjAddr: 0x43A4, symBinAddr: 0x100004B34, symSize: 0x3C }
  - { offset: 0x2832D, size: 0x8, addend: 0x0, symName: __ZNKSt6vectorISt4pairIiiESaIS1_EE5emptyEv, symObjAddr: 0x434C, symBinAddr: 0x100004ADC, symSize: 0x58 }
  - { offset: 0x283C6, size: 0x8, addend: 0x0, symName: __ZNSt12_Vector_baseISt4pairIiiESaIS1_EE19_M_get_Tp_allocatorEv, symObjAddr: 0x4338, symBinAddr: 0x100004AC8, symSize: 0x14 }
  - { offset: 0x283EC, size: 0x8, addend: 0x0, symName: __ZNSt6vectorISt4pairIiiESaIS1_EE11_S_relocateEPS1_S4_S4_RS2_, symObjAddr: 0x4304, symBinAddr: 0x100004A94, symSize: 0x34 }
  - { offset: 0x28485, size: 0x8, addend: 0x0, symName: __ZNSt6vectorISt4pairIiiESaIS1_EE12_Guard_allocD1Ev, symObjAddr: 0x42B8, symBinAddr: 0x100004A48, symSize: 0x4C }
  - { offset: 0x284EF, size: 0x8, addend: 0x0, symName: __ZNSt6vectorISt4pairIiiESaIS1_EE12_Guard_allocC1EPS1_mRSt12_Vector_baseIS1_S2_E, symObjAddr: 0x4274, symBinAddr: 0x100004A04, symSize: 0x44 }
  - { offset: 0x28530, size: 0x8, addend: 0x0, symName: __ZNSt12_Vector_baseISt4pairIiiESaIS1_EE11_M_allocateEm, symObjAddr: 0x4224, symBinAddr: 0x1000049B4, symSize: 0x50 }
  - { offset: 0x285D4, size: 0x8, addend: 0x0, symName: __ZNKSt6vectorISt4pairIiiESaIS1_EE12_M_check_lenEmPKc, symObjAddr: 0x4154, symBinAddr: 0x1000048E4, symSize: 0xD0 }
  - { offset: 0x28677, size: 0x8, addend: 0x0, symName: __ZNSt12_Vector_baseISt6vectorIiSaIiEESaIS2_EE17_Vector_impl_data12_M_copy_dataERKS5_, symObjAddr: 0x410C, symBinAddr: 0x10000489C, symSize: 0x48 }
  - { offset: 0x286D9, size: 0x8, addend: 0x0, symName: __ZNSt12_Vector_baseISt6vectorIiSaIiEESaIS2_EEC2ERKS3_, symObjAddr: 0x40E4, symBinAddr: 0x100004874, symSize: 0x28 }
  - { offset: 0x28708, size: 0x8, addend: 0x0, symName: __ZNKSt12_Vector_baseISt6vectorIiSaIiEESaIS2_EE19_M_get_Tp_allocatorEv, symObjAddr: 0x40D0, symBinAddr: 0x100004860, symSize: 0x14 }
  - { offset: 0x2872E, size: 0x8, addend: 0x0, symName: __ZSt8_DestroyISt6vectorIiSaIiEEEvPT_, symObjAddr: 0x40B0, symBinAddr: 0x100004840, symSize: 0x20 }
  - { offset: 0x2877E, size: 0x8, addend: 0x0, symName: __ZSt20uninitialized_fill_nIPSt6vectorIiSaIiEEmS2_ET_S4_T0_RKT1_, symObjAddr: 0x4084, symBinAddr: 0x100004814, symSize: 0x2C }
  - { offset: 0x287E9, size: 0x8, addend: 0x0, symName: __ZNSt12_Vector_baseISt6vectorIiSaIiEESaIS2_EE11_M_allocateEm, symObjAddr: 0x4034, symBinAddr: 0x1000047C4, symSize: 0x50 }
  - { offset: 0x2887E, size: 0x8, addend: 0x0, symName: __ZSt25__uninitialized_default_nIPimET_S1_T0_, symObjAddr: 0x4008, symBinAddr: 0x100004798, symSize: 0x2C }
  - { offset: 0x28912, size: 0x8, addend: 0x0, symName: __ZNSt12_Vector_baseIiSaIiEE11_M_allocateEm, symObjAddr: 0x3FB8, symBinAddr: 0x100004748, symSize: 0x50 }
  - { offset: 0x28994, size: 0x8, addend: 0x0, symName: __ZNSt12_Vector_baseIiSaIiEE17_Vector_impl_dataC2Ev, symObjAddr: 0x3F8C, symBinAddr: 0x10000471C, symSize: 0x2C }
  - { offset: 0x289EB, size: 0x8, addend: 0x0, symName: __ZNSt12_Vector_baseISt6vectorIbSaIbEESaIS2_EE17_Vector_impl_data12_M_copy_dataERKS5_, symObjAddr: 0x3F44, symBinAddr: 0x1000046D4, symSize: 0x48 }
  - { offset: 0x28A4D, size: 0x8, addend: 0x0, symName: __ZNSt12_Vector_baseISt6vectorIbSaIbEESaIS2_EEC2ERKS3_, symObjAddr: 0x3F1C, symBinAddr: 0x1000046AC, symSize: 0x28 }
  - { offset: 0x28A7C, size: 0x8, addend: 0x0, symName: __ZNKSt12_Vector_baseISt6vectorIbSaIbEESaIS2_EE19_M_get_Tp_allocatorEv, symObjAddr: 0x3F08, symBinAddr: 0x100004698, symSize: 0x14 }
  - { offset: 0x28AA2, size: 0x8, addend: 0x0, symName: __ZSt8_DestroyISt6vectorIbSaIbEEEvPT_, symObjAddr: 0x3EE8, symBinAddr: 0x100004678, symSize: 0x20 }
  - { offset: 0x28AF2, size: 0x8, addend: 0x0, symName: __ZSt20uninitialized_fill_nIPSt6vectorIbSaIbEEmS2_ET_S4_T0_RKT1_, symObjAddr: 0x3EBC, symBinAddr: 0x10000464C, symSize: 0x2C }
  - { offset: 0x28B5D, size: 0x8, addend: 0x0, symName: __ZNSt12_Vector_baseISt6vectorIbSaIbEESaIS2_EE11_M_allocateEm, symObjAddr: 0x3E6C, symBinAddr: 0x1000045FC, symSize: 0x50 }
  - { offset: 0x28BF6, size: 0x8, addend: 0x0, symName: __ZNSt13_Bvector_baseISaIbEE18_Bvector_impl_data8_M_resetEv, symObjAddr: 0x3E2C, symBinAddr: 0x1000045BC, symSize: 0x40 }
  - { offset: 0x28C20, size: 0x8, addend: 0x0, symName: __ZNKSt13_Bvector_baseISaIbEE13_Bvector_impl11_M_end_addrEv, symObjAddr: 0x3DEC, symBinAddr: 0x10000457C, symSize: 0x40 }
  - { offset: 0x28C88, size: 0x8, addend: 0x0, symName: __ZNSt13_Bvector_baseISaIbEE8_S_nwordEm, symObjAddr: 0x3DD0, symBinAddr: 0x100004560, symSize: 0x1C }
  - { offset: 0x28CB6, size: 0x8, addend: 0x0, symName: __ZNSt13_Bvector_baseISaIbEE11_M_allocateEm, symObjAddr: 0x3D80, symBinAddr: 0x100004510, symSize: 0x50 }
  - { offset: 0x28D57, size: 0x8, addend: 0x0, symName: __ZNSt13_Bvector_baseISaIbEE13_Bvector_implC1ERKSaImE, symObjAddr: 0x3D34, symBinAddr: 0x1000044C4, symSize: 0x4C }
  - { offset: 0x28E03, size: 0x8, addend: 0x0, symName: __ZNSt12_Vector_baseISt6vectorIS0_ISt4pairIiiESaIS2_EESaIS4_EESaIS6_EE17_Vector_impl_data12_M_copy_dataERKS9_, symObjAddr: 0x3CEC, symBinAddr: 0x10000447C, symSize: 0x48 }
  - { offset: 0x28E65, size: 0x8, addend: 0x0, symName: __ZNSt12_Vector_baseISt6vectorIS0_ISt4pairIiiESaIS2_EESaIS4_EESaIS6_EEC2ERKS7_, symObjAddr: 0x3CC4, symBinAddr: 0x100004454, symSize: 0x28 }
  - { offset: 0x28E94, size: 0x8, addend: 0x0, symName: __ZNKSt12_Vector_baseISt6vectorIS0_ISt4pairIiiESaIS2_EESaIS4_EESaIS6_EE19_M_get_Tp_allocatorEv, symObjAddr: 0x3CB0, symBinAddr: 0x100004440, symSize: 0x14 }
  - { offset: 0x28EBA, size: 0x8, addend: 0x0, symName: __ZSt8_DestroyISt6vectorIS0_ISt4pairIiiESaIS2_EESaIS4_EEEvPT_, symObjAddr: 0x3C90, symBinAddr: 0x100004420, symSize: 0x20 }
  - { offset: 0x28F0A, size: 0x8, addend: 0x0, symName: __ZSt20uninitialized_fill_nIPSt6vectorIS0_ISt4pairIiiESaIS2_EESaIS4_EEmS6_ET_S8_T0_RKT1_, symObjAddr: 0x3C64, symBinAddr: 0x1000043F4, symSize: 0x2C }
  - { offset: 0x28F75, size: 0x8, addend: 0x0, symName: __ZNSt12_Vector_baseISt6vectorIS0_ISt4pairIiiESaIS2_EESaIS4_EESaIS6_EE11_M_allocateEm, symObjAddr: 0x3C14, symBinAddr: 0x1000043A4, symSize: 0x50 }
  - { offset: 0x2900A, size: 0x8, addend: 0x0, symName: __ZSt8_DestroyISt6vectorISt4pairIiiESaIS2_EEEvPT_, symObjAddr: 0x3BF4, symBinAddr: 0x100004384, symSize: 0x20 }
  - { offset: 0x2905A, size: 0x8, addend: 0x0, symName: __ZSt25__uninitialized_default_nIPSt6vectorISt4pairIiiESaIS2_EEmET_S6_T0_, symObjAddr: 0x3BC8, symBinAddr: 0x100004358, symSize: 0x2C }
  - { offset: 0x290EE, size: 0x8, addend: 0x0, symName: __ZNSt12_Vector_baseISt6vectorISt4pairIiiESaIS2_EESaIS4_EE11_M_allocateEm, symObjAddr: 0x3B78, symBinAddr: 0x100004308, symSize: 0x50 }
  - { offset: 0x29170, size: 0x8, addend: 0x0, symName: __ZNSt12_Vector_baseISt6vectorISt4pairIiiESaIS2_EESaIS4_EE17_Vector_impl_dataC2Ev, symObjAddr: 0x3B4C, symBinAddr: 0x1000042DC, symSize: 0x2C }
  - { offset: 0x291C7, size: 0x8, addend: 0x0, symName: __ZNSt15__new_allocatorISt6vectorIS0_ISt4pairIiiESaIS2_EESaIS4_EEE10deallocateEPS6_m, symObjAddr: 0x3B10, symBinAddr: 0x1000042A0, symSize: 0x3C }
  - { offset: 0x29211, size: 0x8, addend: 0x0, symName: __ZNSt15__new_allocatorISt6vectorIiSaIiEEE10deallocateEPS2_m, symObjAddr: 0x3AD4, symBinAddr: 0x100004264, symSize: 0x3C }
  - { offset: 0x2925B, size: 0x8, addend: 0x0, symName: __ZNSt15__new_allocatorISt6vectorIbSaIbEEE10deallocateEPS2_m, symObjAddr: 0x3A98, symBinAddr: 0x100004228, symSize: 0x3C }
  - { offset: 0x292A5, size: 0x8, addend: 0x0, symName: __ZNSt15__new_allocatorImE10deallocateEPmm, symObjAddr: 0x3A68, symBinAddr: 0x1000041F8, symSize: 0x30 }
  - { offset: 0x292EF, size: 0x8, addend: 0x0, symName: __ZNSt6vectorISt4pairIiiESaIS1_EE4backEv, symObjAddr: 0x39CC, symBinAddr: 0x10000415C, symSize: 0x9C }
  - { offset: 0x293A6, size: 0x8, addend: 0x0, symName: __ZNSt6vectorISt4pairIiiESaIS1_EE17_M_realloc_appendIJS1_EEEvDpOT_, symObjAddr: 0x37D8, symBinAddr: 0x100003F68, symSize: 0x1F4 }
  - { offset: 0x29689, size: 0x8, addend: 0x0, symName: __ZNSt12_Vector_baseISt6vectorIiSaIiEESaIS2_EE17_Vector_impl_data12_M_swap_dataERS5_, symObjAddr: 0x378C, symBinAddr: 0x100003F1C, symSize: 0x4C }
  - { offset: 0x296FB, size: 0x8, addend: 0x0, symName: __ZNSt6vectorIS_IiSaIiEESaIS1_EEC1ERKS2_, symObjAddr: 0x3764, symBinAddr: 0x100003EF4, symSize: 0x28 }
  - { offset: 0x2972A, size: 0x8, addend: 0x0, symName: __ZNKSt12_Vector_baseISt6vectorIiSaIiEESaIS2_EE13get_allocatorEv, symObjAddr: 0x3714, symBinAddr: 0x100003EA4, symSize: 0x50 }
  - { offset: 0x297A9, size: 0x8, addend: 0x0, symName: __ZSt8_DestroyIPSt6vectorIiSaIiEEEvT_S4_, symObjAddr: 0x36C4, symBinAddr: 0x100003E54, symSize: 0x50 }
  - { offset: 0x2980E, size: 0x8, addend: 0x0, symName: __ZSt24__uninitialized_fill_n_aIPSt6vectorIiSaIiEEmS2_S2_ET_S4_T0_RKT1_RSaIT2_E, symObjAddr: 0x3694, symBinAddr: 0x100003E24, symSize: 0x30 }
  - { offset: 0x2988B, size: 0x8, addend: 0x0, symName: __ZNSt12_Vector_baseISt6vectorIiSaIiEESaIS2_EE17_M_create_storageEm, symObjAddr: 0x3628, symBinAddr: 0x100003DB8, symSize: 0x6C }
  - { offset: 0x298ED, size: 0x8, addend: 0x0, symName: __ZNSt12_Vector_baseISt6vectorIiSaIiEESaIS2_EE12_Vector_implC1ERKS3_, symObjAddr: 0x35DC, symBinAddr: 0x100003D6C, symSize: 0x4C }
  - { offset: 0x29993, size: 0x8, addend: 0x0, symName: __ZNSt6vectorIS_IiSaIiEESaIS1_EE11_S_max_sizeERKS2_, symObjAddr: 0x3580, symBinAddr: 0x100003D10, symSize: 0x5C }
  - { offset: 0x29A4A, size: 0x8, addend: 0x0, symName: __ZSt8_DestroyIPiEvT_S1_, symObjAddr: 0x3568, symBinAddr: 0x100003CF8, symSize: 0x18 }
  - { offset: 0x29A8C, size: 0x8, addend: 0x0, symName: __ZSt27__uninitialized_default_n_aIPimiET_S1_T0_RSaIT1_E, symObjAddr: 0x3540, symBinAddr: 0x100003CD0, symSize: 0x28 }
  - { offset: 0x29AEF, size: 0x8, addend: 0x0, symName: __ZNSt12_Vector_baseIiSaIiEE13_M_deallocateEPim, symObjAddr: 0x34E8, symBinAddr: 0x100003C78, symSize: 0x58 }
  - { offset: 0x29B71, size: 0x8, addend: 0x0, symName: __ZNSt12_Vector_baseIiSaIiEE17_M_create_storageEm, symObjAddr: 0x3488, symBinAddr: 0x100003C18, symSize: 0x60 }
  - { offset: 0x29BD3, size: 0x8, addend: 0x0, symName: __ZNSt12_Vector_baseIiSaIiEE12_Vector_implC1ERKS0_, symObjAddr: 0x343C, symBinAddr: 0x100003BCC, symSize: 0x4C }
  - { offset: 0x29C79, size: 0x8, addend: 0x0, symName: __ZNSt6vectorIiSaIiEE11_S_max_sizeERKS0_, symObjAddr: 0x33E8, symBinAddr: 0x100003B78, symSize: 0x54 }
  - { offset: 0x29D61, size: 0x8, addend: 0x0, symName: __ZNSt12_Vector_baseISt6vectorIbSaIbEESaIS2_EE17_Vector_impl_data12_M_swap_dataERS5_, symObjAddr: 0x339C, symBinAddr: 0x100003B2C, symSize: 0x4C }
  - { offset: 0x29DD3, size: 0x8, addend: 0x0, symName: __ZNSt6vectorIS_IbSaIbEESaIS1_EEC1ERKS2_, symObjAddr: 0x3374, symBinAddr: 0x100003B04, symSize: 0x28 }
  - { offset: 0x29E02, size: 0x8, addend: 0x0, symName: __ZNKSt12_Vector_baseISt6vectorIbSaIbEESaIS2_EE13get_allocatorEv, symObjAddr: 0x3324, symBinAddr: 0x100003AB4, symSize: 0x50 }
  - { offset: 0x29E81, size: 0x8, addend: 0x0, symName: __ZSt8_DestroyIPSt6vectorIbSaIbEEEvT_S4_, symObjAddr: 0x32D4, symBinAddr: 0x100003A64, symSize: 0x50 }
  - { offset: 0x29EE6, size: 0x8, addend: 0x0, symName: __ZSt24__uninitialized_fill_n_aIPSt6vectorIbSaIbEEmS2_S2_ET_S4_T0_RKT1_RSaIT2_E, symObjAddr: 0x32A4, symBinAddr: 0x100003A34, symSize: 0x30 }
  - { offset: 0x29F63, size: 0x8, addend: 0x0, symName: __ZNSt12_Vector_baseISt6vectorIbSaIbEESaIS2_EE17_M_create_storageEm, symObjAddr: 0x3238, symBinAddr: 0x1000039C8, symSize: 0x6C }
  - { offset: 0x29FC5, size: 0x8, addend: 0x0, symName: __ZNSt12_Vector_baseISt6vectorIbSaIbEESaIS2_EE12_Vector_implC1ERKS3_, symObjAddr: 0x31EC, symBinAddr: 0x10000397C, symSize: 0x4C }
  - { offset: 0x2A06B, size: 0x8, addend: 0x0, symName: __ZNSt6vectorIS_IbSaIbEESaIS1_EE11_S_max_sizeERKS2_, symObjAddr: 0x3190, symBinAddr: 0x100003920, symSize: 0x5C }
  - { offset: 0x2A126, size: 0x8, addend: 0x0, symName: __ZNSt13_Bvector_baseISaIbEE13_M_deallocateEv, symObjAddr: 0x3100, symBinAddr: 0x100003890, symSize: 0x90 }
  - { offset: 0x2A1AA, size: 0x8, addend: 0x0, symName: __ZNSt6vectorIbSaIbEE19_M_initialize_valueEb, symObjAddr: 0x309C, symBinAddr: 0x10000382C, symSize: 0x64 }
  - { offset: 0x2A209, size: 0x8, addend: 0x0, symName: __ZNSt6vectorIbSaIbEE13_M_initializeEm, symObjAddr: 0x2FE4, symBinAddr: 0x100003774, symSize: 0xB8 }
  - { offset: 0x2A2C5, size: 0x8, addend: 0x0, symName: __ZNSt13_Bvector_baseISaIbEEC2ERKS0_, symObjAddr: 0x2F98, symBinAddr: 0x100003728, symSize: 0x4C }
  - { offset: 0x2A38F, size: 0x8, addend: 0x0, symName: __ZNSt12_Vector_baseISt6vectorIS0_ISt4pairIiiESaIS2_EESaIS4_EESaIS6_EE17_Vector_impl_data12_M_swap_dataERS9_, symObjAddr: 0x2F4C, symBinAddr: 0x1000036DC, symSize: 0x4C }
  - { offset: 0x2A401, size: 0x8, addend: 0x0, symName: __ZNSt6vectorIS_IS_ISt4pairIiiESaIS1_EESaIS3_EESaIS5_EEC1ERKS6_, symObjAddr: 0x2F24, symBinAddr: 0x1000036B4, symSize: 0x28 }
  - { offset: 0x2A430, size: 0x8, addend: 0x0, symName: __ZNKSt12_Vector_baseISt6vectorIS0_ISt4pairIiiESaIS2_EESaIS4_EESaIS6_EE13get_allocatorEv, symObjAddr: 0x2ED4, symBinAddr: 0x100003664, symSize: 0x50 }
  - { offset: 0x2A4AF, size: 0x8, addend: 0x0, symName: __ZSt8_DestroyIPSt6vectorIS0_ISt4pairIiiESaIS2_EESaIS4_EEEvT_S8_, symObjAddr: 0x2E84, symBinAddr: 0x100003614, symSize: 0x50 }
  - { offset: 0x2A514, size: 0x8, addend: 0x0, symName: __ZSt24__uninitialized_fill_n_aIPSt6vectorIS0_ISt4pairIiiESaIS2_EESaIS4_EEmS6_S6_ET_S8_T0_RKT1_RSaIT2_E, symObjAddr: 0x2E54, symBinAddr: 0x1000035E4, symSize: 0x30 }
  - { offset: 0x2A591, size: 0x8, addend: 0x0, symName: __ZNSt12_Vector_baseISt6vectorIS0_ISt4pairIiiESaIS2_EESaIS4_EESaIS6_EE17_M_create_storageEm, symObjAddr: 0x2DE8, symBinAddr: 0x100003578, symSize: 0x6C }
  - { offset: 0x2A5F3, size: 0x8, addend: 0x0, symName: __ZNSt12_Vector_baseISt6vectorIS0_ISt4pairIiiESaIS2_EESaIS4_EESaIS6_EE12_Vector_implC1ERKS7_, symObjAddr: 0x2D9C, symBinAddr: 0x10000352C, symSize: 0x4C }
  - { offset: 0x2A699, size: 0x8, addend: 0x0, symName: __ZNSt6vectorIS_IS_ISt4pairIiiESaIS1_EESaIS3_EESaIS5_EE11_S_max_sizeERKS6_, symObjAddr: 0x2D40, symBinAddr: 0x1000034D0, symSize: 0x5C }
  - { offset: 0x2A750, size: 0x8, addend: 0x0, symName: __ZSt8_DestroyIPSt6vectorISt4pairIiiESaIS2_EEEvT_S6_, symObjAddr: 0x2CF0, symBinAddr: 0x100003480, symSize: 0x50 }
  - { offset: 0x2A7B5, size: 0x8, addend: 0x0, symName: __ZSt27__uninitialized_default_n_aIPSt6vectorISt4pairIiiESaIS2_EEmS4_ET_S6_T0_RSaIT1_E, symObjAddr: 0x2CC8, symBinAddr: 0x100003458, symSize: 0x28 }
  - { offset: 0x2A818, size: 0x8, addend: 0x0, symName: __ZNSt12_Vector_baseISt6vectorISt4pairIiiESaIS2_EESaIS4_EE13_M_deallocateEPS4_m, symObjAddr: 0x2C70, symBinAddr: 0x100003400, symSize: 0x58 }
  - { offset: 0x2A89A, size: 0x8, addend: 0x0, symName: __ZNSt12_Vector_baseISt6vectorISt4pairIiiESaIS2_EESaIS4_EE17_M_create_storageEm, symObjAddr: 0x2C04, symBinAddr: 0x100003394, symSize: 0x6C }
  - { offset: 0x2A8FC, size: 0x8, addend: 0x0, symName: __ZNSt12_Vector_baseISt6vectorISt4pairIiiESaIS2_EESaIS4_EE12_Vector_implC1ERKS5_, symObjAddr: 0x2BB8, symBinAddr: 0x100003348, symSize: 0x4C }
  - { offset: 0x2A9A2, size: 0x8, addend: 0x0, symName: __ZNSt6vectorIS_ISt4pairIiiESaIS1_EESaIS3_EE11_S_max_sizeERKS4_, symObjAddr: 0x2B5C, symBinAddr: 0x1000032EC, symSize: 0x5C }
  - { offset: 0x2AA5D, size: 0x8, addend: 0x0, symName: __ZNKSt6vectorIbSaIbEE5beginEv, symObjAddr: 0x2B0C, symBinAddr: 0x10000329C, symSize: 0x50 }
  - { offset: 0x2AA87, size: 0x8, addend: 0x0, symName: __ZNKSt6vectorIbSaIbEE3endEv, symObjAddr: 0x2AC0, symBinAddr: 0x100003250, symSize: 0x4C }
  - { offset: 0x2AB8F, size: 0x8, addend: 0x0, symName: __ZNSt6vectorISt4pairIiiESaIS1_EE12emplace_backIJS1_EEERS1_DpOT_, symObjAddr: 0x29C8, symBinAddr: 0x100003158, symSize: 0xF8 }
  - { offset: 0x2ACF7, size: 0x8, addend: 0x0, symName: __ZNSt6vectorIS_IiSaIiEESaIS1_EE14_M_move_assignEOS3_St17integral_constantIbLb1EE, symObjAddr: 0x2934, symBinAddr: 0x1000030C4, symSize: 0x94 }
  - { offset: 0x2ADFC, size: 0x8, addend: 0x0, symName: __ZNSt12_Vector_baseISt6vectorIiSaIiEESaIS2_EE19_M_get_Tp_allocatorEv, symObjAddr: 0x2920, symBinAddr: 0x1000030B0, symSize: 0x14 }
  - { offset: 0x2AE26, size: 0x8, addend: 0x0, symName: __ZNSt6vectorIS_IiSaIiEESaIS1_EE18_M_fill_initializeEmRKS1_, symObjAddr: 0x28C8, symBinAddr: 0x100003058, symSize: 0x58 }
  - { offset: 0x2AEA8, size: 0x8, addend: 0x0, symName: __ZNSt12_Vector_baseISt6vectorIiSaIiEESaIS2_EEC2EmRKS3_, symObjAddr: 0x2874, symBinAddr: 0x100003004, symSize: 0x54 }
  - { offset: 0x2AEDC, size: 0x8, addend: 0x0, symName: __ZNSt6vectorIS_IiSaIiEESaIS1_EE17_S_check_init_lenEmRKS2_, symObjAddr: 0x27F0, symBinAddr: 0x100002F80, symSize: 0x84 }
  - { offset: 0x2AFE3, size: 0x8, addend: 0x0, symName: __ZNSt12_Vector_baseIiSaIiEE19_M_get_Tp_allocatorEv, symObjAddr: 0x27DC, symBinAddr: 0x100002F6C, symSize: 0x14 }
  - { offset: 0x2B00D, size: 0x8, addend: 0x0, symName: __ZNSt6vectorIiSaIiEE21_M_default_initializeEm, symObjAddr: 0x278C, symBinAddr: 0x100002F1C, symSize: 0x50 }
  - { offset: 0x2B062, size: 0x8, addend: 0x0, symName: __ZNSt12_Vector_baseIiSaIiEED2Ev, symObjAddr: 0x273C, symBinAddr: 0x100002ECC, symSize: 0x50 }
  - { offset: 0x2B0BE, size: 0x8, addend: 0x0, symName: __ZNSt12_Vector_baseIiSaIiEEC2EmRKS0_, symObjAddr: 0x26E8, symBinAddr: 0x100002E78, symSize: 0x54 }
  - { offset: 0x2B113, size: 0x8, addend: 0x0, symName: __ZNSt12_Vector_baseIiSaIiEE12_Vector_implD1Ev, symObjAddr: 0x26BC, symBinAddr: 0x100002E4C, symSize: 0x2C }
  - { offset: 0x2B158, size: 0x8, addend: 0x0, symName: __ZNSt6vectorIiSaIiEE17_S_check_init_lenEmRKS0_, symObjAddr: 0x2638, symBinAddr: 0x100002DC8, symSize: 0x84 }
  - { offset: 0x2B228, size: 0x8, addend: 0x0, symName: __ZNSt15__new_allocatorIiED2Ev, symObjAddr: 0x2624, symBinAddr: 0x100002DB4, symSize: 0x14 }
  - { offset: 0x2B264, size: 0x8, addend: 0x0, symName: __ZNSt6vectorIS_IbSaIbEESaIS1_EE14_M_move_assignEOS3_St17integral_constantIbLb1EE, symObjAddr: 0x2590, symBinAddr: 0x100002D20, symSize: 0x94 }
  - { offset: 0x2B369, size: 0x8, addend: 0x0, symName: __ZNSt12_Vector_baseISt6vectorIbSaIbEESaIS2_EE19_M_get_Tp_allocatorEv, symObjAddr: 0x257C, symBinAddr: 0x100002D0C, symSize: 0x14 }
  - { offset: 0x2B393, size: 0x8, addend: 0x0, symName: __ZNSt6vectorIS_IbSaIbEESaIS1_EE18_M_fill_initializeEmRKS1_, symObjAddr: 0x2524, symBinAddr: 0x100002CB4, symSize: 0x58 }
  - { offset: 0x2B415, size: 0x8, addend: 0x0, symName: __ZNSt12_Vector_baseISt6vectorIbSaIbEESaIS2_EEC2EmRKS3_, symObjAddr: 0x24D0, symBinAddr: 0x100002C60, symSize: 0x54 }
  - { offset: 0x2B449, size: 0x8, addend: 0x0, symName: __ZNSt6vectorIS_IbSaIbEESaIS1_EE17_S_check_init_lenEmRKS2_, symObjAddr: 0x244C, symBinAddr: 0x100002BDC, symSize: 0x84 }
  - { offset: 0x2B52F, size: 0x8, addend: 0x0, symName: __ZNSt13_Bvector_baseISaIbEED2Ev, symObjAddr: 0x2424, symBinAddr: 0x100002BB4, symSize: 0x28 }
  - { offset: 0x2B573, size: 0x8, addend: 0x0, symName: __ZNSt13_Bvector_baseISaIbEE13_Bvector_implD1Ev, symObjAddr: 0x23F8, symBinAddr: 0x100002B88, symSize: 0x2C }
  - { offset: 0x2B601, size: 0x8, addend: 0x0, symName: __ZNSt6vectorIbSaIbEEC1EmRKbRKS0_, symObjAddr: 0x238C, symBinAddr: 0x100002B1C, symSize: 0x6C }
  - { offset: 0x2B65C, size: 0x8, addend: 0x0, symName: __ZNSt15__new_allocatorIbED2Ev, symObjAddr: 0x2378, symBinAddr: 0x100002B08, symSize: 0x14 }
  - { offset: 0x2B698, size: 0x8, addend: 0x0, symName: __ZNSt6vectorIS_IS_ISt4pairIiiESaIS1_EESaIS3_EESaIS5_EE14_M_move_assignEOS7_St17integral_constantIbLb1EE, symObjAddr: 0x22E4, symBinAddr: 0x100002A74, symSize: 0x94 }
  - { offset: 0x2B79D, size: 0x8, addend: 0x0, symName: __ZNSt12_Vector_baseISt6vectorIS0_ISt4pairIiiESaIS2_EESaIS4_EESaIS6_EE19_M_get_Tp_allocatorEv, symObjAddr: 0x22D0, symBinAddr: 0x100002A60, symSize: 0x14 }
  - { offset: 0x2B7C7, size: 0x8, addend: 0x0, symName: __ZNSt6vectorIS_IS_ISt4pairIiiESaIS1_EESaIS3_EESaIS5_EE18_M_fill_initializeEmRKS5_, symObjAddr: 0x2278, symBinAddr: 0x100002A08, symSize: 0x58 }
  - { offset: 0x2B849, size: 0x8, addend: 0x0, symName: __ZNSt12_Vector_baseISt6vectorIS0_ISt4pairIiiESaIS2_EESaIS4_EESaIS6_EEC2EmRKS7_, symObjAddr: 0x2224, symBinAddr: 0x1000029B4, symSize: 0x54 }
  - { offset: 0x2B87D, size: 0x8, addend: 0x0, symName: __ZNSt6vectorIS_IS_ISt4pairIiiESaIS1_EESaIS3_EESaIS5_EE17_S_check_init_lenEmRKS6_, symObjAddr: 0x21A0, symBinAddr: 0x100002930, symSize: 0x84 }
  - { offset: 0x2B984, size: 0x8, addend: 0x0, symName: __ZNSt12_Vector_baseISt6vectorISt4pairIiiESaIS2_EESaIS4_EE19_M_get_Tp_allocatorEv, symObjAddr: 0x218C, symBinAddr: 0x10000291C, symSize: 0x14 }
  - { offset: 0x2B9AE, size: 0x8, addend: 0x0, symName: __ZNSt6vectorIS_ISt4pairIiiESaIS1_EESaIS3_EE21_M_default_initializeEm, symObjAddr: 0x213C, symBinAddr: 0x1000028CC, symSize: 0x50 }
  - { offset: 0x2BA03, size: 0x8, addend: 0x0, symName: __ZNSt12_Vector_baseISt6vectorISt4pairIiiESaIS2_EESaIS4_EED2Ev, symObjAddr: 0x20E0, symBinAddr: 0x100002870, symSize: 0x5C }
  - { offset: 0x2BA5F, size: 0x8, addend: 0x0, symName: __ZNSt12_Vector_baseISt6vectorISt4pairIiiESaIS2_EESaIS4_EEC2EmRKS5_, symObjAddr: 0x208C, symBinAddr: 0x10000281C, symSize: 0x54 }
  - { offset: 0x2BAB4, size: 0x8, addend: 0x0, symName: __ZNSt12_Vector_baseISt6vectorISt4pairIiiESaIS2_EESaIS4_EE12_Vector_implD1Ev, symObjAddr: 0x2060, symBinAddr: 0x1000027F0, symSize: 0x2C }
  - { offset: 0x2BAF9, size: 0x8, addend: 0x0, symName: __ZNSt6vectorIS_ISt4pairIiiESaIS1_EESaIS3_EE17_S_check_init_lenEmRKS4_, symObjAddr: 0x1FDC, symBinAddr: 0x10000276C, symSize: 0x84 }
  - { offset: 0x2BBC9, size: 0x8, addend: 0x0, symName: __ZNSt15__new_allocatorISt6vectorISt4pairIiiESaIS2_EEED2Ev, symObjAddr: 0x1FC8, symBinAddr: 0x100002758, symSize: 0x14 }
  - { offset: 0x2BC05, size: 0x8, addend: 0x0, symName: __ZNKSt6vectorIbSaIbEE4sizeEv, symObjAddr: 0x1F90, symBinAddr: 0x100002720, symSize: 0x38 }
  - { offset: 0x2BC53, size: 0x8, addend: 0x0, symName: __ZNKSt6vectorIS_ISt4pairIiiESaIS1_EESaIS3_EE4sizeEv, symObjAddr: 0x1F44, symBinAddr: 0x1000026D4, symSize: 0x4C }
  - { offset: 0x2BC8E, size: 0x8, addend: 0x0, symName: __ZNKSt6vectorIS_IS_ISt4pairIiiESaIS1_EESaIS3_EESaIS5_EE4sizeEv, symObjAddr: 0x1EF8, symBinAddr: 0x100002688, symSize: 0x4C }
  - { offset: 0x2BCC9, size: 0x8, addend: 0x0, symName: __ZNKSt6vectorIiSaIiEE4sizeEv, symObjAddr: 0x1EB8, symBinAddr: 0x100002648, symSize: 0x40 }
  - { offset: 0x2BD04, size: 0x8, addend: 0x0, symName: __ZNKSt6vectorIS_IiSaIiEESaIS1_EE4sizeEv, symObjAddr: 0x1E6C, symBinAddr: 0x1000025FC, symSize: 0x4C }
  - { offset: 0x2BD3F, size: 0x8, addend: 0x0, symName: __ZNSt12_Vector_baseISt6vectorIS0_ISt4pairIiiESaIS2_EESaIS4_EESaIS6_EE13_M_deallocateEPS6_m, symObjAddr: 0x1E14, symBinAddr: 0x1000025A4, symSize: 0x58 }
  - { offset: 0x2BDDB, size: 0x8, addend: 0x0, symName: __ZNSt15__new_allocatorISt6vectorIS0_ISt4pairIiiESaIS2_EESaIS4_EEED2Ev, symObjAddr: 0x1E00, symBinAddr: 0x100002590, symSize: 0x14 }
  - { offset: 0x2BE1B, size: 0x8, addend: 0x0, symName: __ZNSt12_Vector_baseISt6vectorIS0_ISt4pairIiiESaIS2_EESaIS4_EESaIS6_EE17_Vector_impl_dataC1Ev, symObjAddr: 0x1DD4, symBinAddr: 0x100002564, symSize: 0x2C }
  - { offset: 0x2BE45, size: 0x8, addend: 0x0, symName: __ZNSt12_Vector_baseISt6vectorIS0_ISt4pairIiiESaIS2_EESaIS4_EESaIS6_EE17_Vector_impl_dataC2Ev, symObjAddr: 0x1DA8, symBinAddr: 0x100002538, symSize: 0x2C }
  - { offset: 0x2BE6B, size: 0x8, addend: 0x0, symName: __ZNSt12_Vector_baseISt6vectorIiSaIiEESaIS2_EE13_M_deallocateEPS2_m, symObjAddr: 0x1D50, symBinAddr: 0x1000024E0, symSize: 0x58 }
  - { offset: 0x2BF07, size: 0x8, addend: 0x0, symName: __ZNSt15__new_allocatorISt6vectorIiSaIiEEED2Ev, symObjAddr: 0x1D3C, symBinAddr: 0x1000024CC, symSize: 0x14 }
  - { offset: 0x2BF47, size: 0x8, addend: 0x0, symName: __ZNSt12_Vector_baseISt6vectorIiSaIiEESaIS2_EE17_Vector_impl_dataC1Ev, symObjAddr: 0x1D10, symBinAddr: 0x1000024A0, symSize: 0x2C }
  - { offset: 0x2BF71, size: 0x8, addend: 0x0, symName: __ZNSt12_Vector_baseISt6vectorIiSaIiEESaIS2_EE17_Vector_impl_dataC2Ev, symObjAddr: 0x1CE4, symBinAddr: 0x100002474, symSize: 0x2C }
  - { offset: 0x2BF97, size: 0x8, addend: 0x0, symName: __ZNSt12_Vector_baseISt6vectorIbSaIbEESaIS2_EE13_M_deallocateEPS2_m, symObjAddr: 0x1C8C, symBinAddr: 0x10000241C, symSize: 0x58 }
  - { offset: 0x2C033, size: 0x8, addend: 0x0, symName: __ZNSt15__new_allocatorISt6vectorIbSaIbEEED2Ev, symObjAddr: 0x1C78, symBinAddr: 0x100002408, symSize: 0x14 }
  - { offset: 0x2C073, size: 0x8, addend: 0x0, symName: __ZNSt12_Vector_baseISt6vectorIbSaIbEESaIS2_EE17_Vector_impl_dataC1Ev, symObjAddr: 0x1C4C, symBinAddr: 0x1000023DC, symSize: 0x2C }
  - { offset: 0x2C09D, size: 0x8, addend: 0x0, symName: __ZNSt12_Vector_baseISt6vectorIbSaIbEESaIS2_EE17_Vector_impl_dataC2Ev, symObjAddr: 0x1C20, symBinAddr: 0x1000023B0, symSize: 0x2C }
  - { offset: 0x2C0DD, size: 0x8, addend: 0x0, symName: __ZNSt15__new_allocatorImED2Ev, symObjAddr: 0x1C0C, symBinAddr: 0x10000239C, symSize: 0x14 }
  - { offset: 0x2C103, size: 0x8, addend: 0x0, symName: __ZNSt6vectorISt4pairIiiESaIS1_EE9push_backEOS1_, symObjAddr: 0x1BD8, symBinAddr: 0x100002368, symSize: 0x34 }
  - { offset: 0x2C1AA, size: 0x8, addend: 0x0, symName: __ZNSt4pairIiiEC1IRiS2_Lb1EEEOT_OT0_, symObjAddr: 0x1B8C, symBinAddr: 0x10000231C, symSize: 0x4C }
  - { offset: 0x2C23C, size: 0x8, addend: 0x0, symName: __ZNSt6vectorIS_IiSaIiEESaIS1_EEaSEOS3_, symObjAddr: 0x1B50, symBinAddr: 0x1000022E0, symSize: 0x3C }
  - { offset: 0x2C2C6, size: 0x8, addend: 0x0, symName: __ZNSt6vectorIS_IiSaIiEESaIS1_EED1Ev, symObjAddr: 0x1AF4, symBinAddr: 0x100002284, symSize: 0x5C }
  - { offset: 0x2C366, size: 0x8, addend: 0x0, symName: __ZNSt6vectorIS_IiSaIiEESaIS1_EEC1EmRKS1_RKS2_, symObjAddr: 0x1A84, symBinAddr: 0x100002214, symSize: 0x70 }
  - { offset: 0x2C3D7, size: 0x8, addend: 0x0, symName: __ZNSt6vectorIiSaIiEED1Ev, symObjAddr: 0x1A28, symBinAddr: 0x1000021B8, symSize: 0x5C }
  - { offset: 0x2C469, size: 0x8, addend: 0x0, symName: __ZNSt6vectorIiSaIiEEC1EmRKS0_, symObjAddr: 0x19C0, symBinAddr: 0x100002150, symSize: 0x68 }
  - { offset: 0x2C4CD, size: 0x8, addend: 0x0, symName: __ZNSt6vectorIS_IbSaIbEESaIS1_EEaSEOS3_, symObjAddr: 0x1984, symBinAddr: 0x100002114, symSize: 0x3C }
  - { offset: 0x2C557, size: 0x8, addend: 0x0, symName: __ZNSt6vectorIS_IbSaIbEESaIS1_EED1Ev, symObjAddr: 0x1928, symBinAddr: 0x1000020B8, symSize: 0x5C }
  - { offset: 0x2C5F7, size: 0x8, addend: 0x0, symName: __ZNSt6vectorIS_IbSaIbEESaIS1_EEC1EmRKS1_RKS2_, symObjAddr: 0x18B8, symBinAddr: 0x100002048, symSize: 0x70 }
  - { offset: 0x2C668, size: 0x8, addend: 0x0, symName: __ZNSt6vectorIbSaIbEED1Ev, symObjAddr: 0x1898, symBinAddr: 0x100002028, symSize: 0x20 }
  - { offset: 0x2C6C4, size: 0x8, addend: 0x0, symName: __ZNSt6vectorIbSaIbEEC1EmRKS0_, symObjAddr: 0x185C, symBinAddr: 0x100001FEC, symSize: 0x3C }
  - { offset: 0x2C728, size: 0x8, addend: 0x0, symName: __ZNSt6vectorIS_IS_ISt4pairIiiESaIS1_EESaIS3_EESaIS5_EEaSEOS7_, symObjAddr: 0x1820, symBinAddr: 0x100001FB0, symSize: 0x3C }
  - { offset: 0x2C7B2, size: 0x8, addend: 0x0, symName: __ZNSt6vectorIS_IS_ISt4pairIiiESaIS1_EESaIS3_EESaIS5_EED1Ev, symObjAddr: 0x17C4, symBinAddr: 0x100001F54, symSize: 0x5C }
  - { offset: 0x2C852, size: 0x8, addend: 0x0, symName: __ZNSt6vectorIS_IS_ISt4pairIiiESaIS1_EESaIS3_EESaIS5_EEC1EmRKS5_RKS6_, symObjAddr: 0x1754, symBinAddr: 0x100001EE4, symSize: 0x70 }
  - { offset: 0x2C8C3, size: 0x8, addend: 0x0, symName: __ZNSt6vectorIS_ISt4pairIiiESaIS1_EESaIS3_EED1Ev, symObjAddr: 0x16F8, symBinAddr: 0x100001E88, symSize: 0x5C }
  - { offset: 0x2C955, size: 0x8, addend: 0x0, symName: __ZNSt6vectorIS_ISt4pairIiiESaIS1_EESaIS3_EEC1EmRKS4_, symObjAddr: 0x1690, symBinAddr: 0x100001E20, symSize: 0x68 }
  - { offset: 0x2C9B9, size: 0x8, addend: 0x0, symName: __ZNKSt6vectorIS_IbSaIbEESaIS1_EE4sizeEv, symObjAddr: 0x1644, symBinAddr: 0x100001DD4, symSize: 0x4C }
  - { offset: 0x2C9F4, size: 0x8, addend: 0x0, symName: __ZNSt6vectorIbSaIbEEixEm, symObjAddr: 0x1598, symBinAddr: 0x100001D28, symSize: 0xAC }
  - { offset: 0x2CA4A, size: 0x8, addend: 0x0, symName: __ZNSt6vectorIS_IbSaIbEESaIS1_EEixEm, symObjAddr: 0x1508, symBinAddr: 0x100001C98, symSize: 0x90 }
  - { offset: 0x2CAB6, size: 0x8, addend: 0x0, symName: __ZNSt6vectorISt4pairIiiESaIS1_EE3endEv, symObjAddr: 0x14D8, symBinAddr: 0x100001C68, symSize: 0x30 }
  - { offset: 0x2CB0A, size: 0x8, addend: 0x0, symName: __ZNSt6vectorISt4pairIiiESaIS1_EE5beginEv, symObjAddr: 0x14AC, symBinAddr: 0x100001C3C, symSize: 0x2C }
  - { offset: 0x2CB5E, size: 0x8, addend: 0x0, symName: __ZNSt6vectorIS_ISt4pairIiiESaIS1_EESaIS3_EEixEm, symObjAddr: 0x141C, symBinAddr: 0x100001BAC, symSize: 0x90 }
  - { offset: 0x2CBB6, size: 0x8, addend: 0x0, symName: __ZNSt6vectorIS_IS_ISt4pairIiiESaIS1_EESaIS3_EESaIS5_EEixEm, symObjAddr: 0x138C, symBinAddr: 0x100001B1C, symSize: 0x90 }
  - { offset: 0x2CC0E, size: 0x8, addend: 0x0, symName: __ZNSt6vectorIiSaIiEEixEm, symObjAddr: 0x1308, symBinAddr: 0x100001A98, symSize: 0x84 }
  - { offset: 0x2CC64, size: 0x8, addend: 0x0, symName: __ZNSt6vectorIS_IiSaIiEESaIS1_EEixEm, symObjAddr: 0x1278, symBinAddr: 0x100001A08, symSize: 0x90 }
  - { offset: 0x2CCD4, size: 0x8, addend: 0x0, symName: __ZNSt12_Vector_baseISt6vectorIS0_ISt4pairIiiESaIS2_EESaIS4_EESaIS6_EED2Ev, symObjAddr: 0x121C, symBinAddr: 0x1000019AC, symSize: 0x5C }
  - { offset: 0x2CD2A, size: 0x8, addend: 0x0, symName: __ZNSt12_Vector_baseISt6vectorIS0_ISt4pairIiiESaIS2_EESaIS4_EESaIS6_EE12_Vector_implC1Ev, symObjAddr: 0x11E4, symBinAddr: 0x100001974, symSize: 0x38 }
  - { offset: 0x2CDB0, size: 0x8, addend: 0x0, symName: __ZNSt12_Vector_baseISt6vectorIiSaIiEESaIS2_EED2Ev, symObjAddr: 0x1188, symBinAddr: 0x100001918, symSize: 0x5C }
  - { offset: 0x2CE06, size: 0x8, addend: 0x0, symName: __ZNSt12_Vector_baseISt6vectorIiSaIiEESaIS2_EE12_Vector_implC1Ev, symObjAddr: 0x1150, symBinAddr: 0x1000018E0, symSize: 0x38 }
  - { offset: 0x2CE8C, size: 0x8, addend: 0x0, symName: __ZNSt12_Vector_baseISt6vectorIbSaIbEESaIS2_EED2Ev, symObjAddr: 0x10F4, symBinAddr: 0x100001884, symSize: 0x5C }
  - { offset: 0x2CEE2, size: 0x8, addend: 0x0, symName: __ZNSt12_Vector_baseISt6vectorIbSaIbEESaIS2_EE12_Vector_implC1Ev, symObjAddr: 0x10BC, symBinAddr: 0x10000184C, symSize: 0x38 }
  - { offset: 0x2CF60, size: 0x8, addend: 0x0, symName: __ZSt3maxImERKT_S2_S2_, symObjAddr: 0x1084, symBinAddr: 0x100001814, symSize: 0x38 }
  - { offset: 0x2CFAB, size: 0x8, addend: 0x0, symName: _main, symObjAddr: 0xC18, symBinAddr: 0x1000013A8, symSize: 0x46C }
  - { offset: 0x2D366, size: 0x8, addend: 0x0, symName: __Z3dfsii, symObjAddr: 0x8D0, symBinAddr: 0x100001060, symSize: 0x348 }
  - { offset: 0x2D54B, size: 0x8, addend: 0x0, symName: __ZNSt10__pair_getILm1EE10__move_getIiiEEOT0_OSt4pairIT_S2_E, symObjAddr: 0x8B0, symBinAddr: 0x100001040, symSize: 0x20 }
  - { offset: 0x2D5AB, size: 0x8, addend: 0x0, symName: __ZSt3getILm1EiiEONSt13tuple_elementIXT_ESt4pairIT0_T1_EE4typeEOS4_, symObjAddr: 0x88C, symBinAddr: 0x10000101C, symSize: 0x24 }
  - { offset: 0x2D639, size: 0x8, addend: 0x0, symName: __ZNSt10__pair_getILm0EE10__move_getIiiEEOT_OSt4pairIS2_T0_E, symObjAddr: 0x870, symBinAddr: 0x100001000, symSize: 0x1C }
  - { offset: 0x2D6BD, size: 0x8, addend: 0x0, symName: __ZSt3getILm0EiiEONSt13tuple_elementIXT_ESt4pairIT0_T1_EE4typeEOS4_, symObjAddr: 0x84C, symBinAddr: 0x100000FDC, symSize: 0x24 }
  - { offset: 0x2D7A7, size: 0x8, addend: 0x0, symName: __ZNSt6vectorIS_IS_ISt4pairIiiESaIS1_EESaIS3_EESaIS5_EEC1Ev, symObjAddr: 0x82C, symBinAddr: 0x100000FBC, symSize: 0x20 }
  - { offset: 0x2D7E7, size: 0x8, addend: 0x0, symName: __ZNSt12_Vector_baseISt6vectorIS0_ISt4pairIiiESaIS2_EESaIS4_EESaIS6_EEC2Ev, symObjAddr: 0x80C, symBinAddr: 0x100000F9C, symSize: 0x20 }
  - { offset: 0x2D82A, size: 0x8, addend: 0x0, symName: __ZNSt12_Vector_baseISt6vectorIS0_ISt4pairIiiESaIS2_EESaIS4_EESaIS6_EE12_Vector_implD1Ev, symObjAddr: 0x7E0, symBinAddr: 0x100000F70, symSize: 0x2C }
  - { offset: 0x2D88D, size: 0x8, addend: 0x0, symName: __ZNSt6vectorIS_IiSaIiEESaIS1_EEC1Ev, symObjAddr: 0x7C0, symBinAddr: 0x100000F50, symSize: 0x20 }
  - { offset: 0x2D8CD, size: 0x8, addend: 0x0, symName: __ZNSt12_Vector_baseISt6vectorIiSaIiEESaIS2_EEC2Ev, symObjAddr: 0x7A0, symBinAddr: 0x100000F30, symSize: 0x20 }
  - { offset: 0x2D910, size: 0x8, addend: 0x0, symName: __ZNSt12_Vector_baseISt6vectorIiSaIiEESaIS2_EE12_Vector_implD1Ev, symObjAddr: 0x774, symBinAddr: 0x100000F04, symSize: 0x2C }
  - { offset: 0x2D973, size: 0x8, addend: 0x0, symName: __ZNSt6vectorIS_IbSaIbEESaIS1_EEC1Ev, symObjAddr: 0x754, symBinAddr: 0x100000EE4, symSize: 0x20 }
  - { offset: 0x2D9B3, size: 0x8, addend: 0x0, symName: __ZNSt12_Vector_baseISt6vectorIbSaIbEESaIS2_EEC2Ev, symObjAddr: 0x734, symBinAddr: 0x100000EC4, symSize: 0x20 }
  - { offset: 0x2D9F6, size: 0x8, addend: 0x0, symName: __ZNSt12_Vector_baseISt6vectorIbSaIbEESaIS2_EE12_Vector_implD1Ev, symObjAddr: 0x708, symBinAddr: 0x100000E98, symSize: 0x2C }
  - { offset: 0x2DA3B, size: 0x8, addend: 0x0, symName: __ZSt16__fill_bvector_nPmmb, symObjAddr: 0x6B0, symBinAddr: 0x100000E40, symSize: 0x58 }
  - { offset: 0x2DA8B, size: 0x8, addend: 0x0, symName: __ZNSt19_Bit_const_iteratorppEv, symObjAddr: 0x690, symBinAddr: 0x100000E20, symSize: 0x20 }
  - { offset: 0x2DAB5, size: 0x8, addend: 0x0, symName: __ZNKSt19_Bit_const_iteratordeEv, symObjAddr: 0x624, symBinAddr: 0x100000DB4, symSize: 0x6C }
  - { offset: 0x2DB34, size: 0x8, addend: 0x0, symName: __ZNSt19_Bit_const_iteratorC1ERKSt13_Bit_iterator, symObjAddr: 0x5E8, symBinAddr: 0x100000D78, symSize: 0x3C }
  - { offset: 0x2DB99, size: 0x8, addend: 0x0, symName: __ZNSt19_Bit_const_iteratorC1EPmj, symObjAddr: 0x5B8, symBinAddr: 0x100000D48, symSize: 0x30 }
  - { offset: 0x2DBD3, size: 0x8, addend: 0x0, symName: __ZStplRKSt13_Bit_iteratorl, symObjAddr: 0x560, symBinAddr: 0x100000CF0, symSize: 0x58 }
  - { offset: 0x2DC23, size: 0x8, addend: 0x0, symName: __ZNSt13_Bit_iteratorpLEl, symObjAddr: 0x538, symBinAddr: 0x100000CC8, symSize: 0x28 }
  - { offset: 0x2DC5E, size: 0x8, addend: 0x0, symName: __ZNSt13_Bit_iteratorppEv, symObjAddr: 0x518, symBinAddr: 0x100000CA8, symSize: 0x20 }
  - { offset: 0x2DC88, size: 0x8, addend: 0x0, symName: __ZNKSt13_Bit_iteratordeEv, symObjAddr: 0x4B0, symBinAddr: 0x100000C40, symSize: 0x68 }
  - { offset: 0x2DD15, size: 0x8, addend: 0x0, symName: __ZNSt13_Bit_iteratorC1EPmj, symObjAddr: 0x480, symBinAddr: 0x100000C10, symSize: 0x30 }
  - { offset: 0x2DD67, size: 0x8, addend: 0x0, symName: __ZNSt13_Bit_iteratorC1Ev, symObjAddr: 0x458, symBinAddr: 0x100000BE8, symSize: 0x28 }
  - { offset: 0x2DD8F, size: 0x8, addend: 0x0, symName: __ZStmiRKSt18_Bit_iterator_baseS1_, symObjAddr: 0x3BC, symBinAddr: 0x100000B4C, symSize: 0x9C }
  - { offset: 0x2DE24, size: 0x8, addend: 0x0, symName: __ZStneRKSt18_Bit_iterator_baseS1_, symObjAddr: 0x390, symBinAddr: 0x100000B20, symSize: 0x2C }
  - { offset: 0x2DE5F, size: 0x8, addend: 0x0, symName: __ZSteqRKSt18_Bit_iterator_baseS1_, symObjAddr: 0x2F0, symBinAddr: 0x100000A80, symSize: 0xA0 }
  - { offset: 0x2DEF4, size: 0x8, addend: 0x0, symName: __ZNSt18_Bit_iterator_base7_M_incrEl, symObjAddr: 0x218, symBinAddr: 0x1000009A8, symSize: 0xD8 }
  - { offset: 0x2DF6A, size: 0x8, addend: 0x0, symName: __ZNSt18_Bit_iterator_base10_M_bump_upEv, symObjAddr: 0x194, symBinAddr: 0x100000924, symSize: 0x84 }
  - { offset: 0x2DFF4, size: 0x8, addend: 0x0, symName: __ZNSt18_Bit_iterator_baseC2EPmj, symObjAddr: 0x160, symBinAddr: 0x1000008F0, symSize: 0x34 }
  - { offset: 0x2E04F, size: 0x8, addend: 0x0, symName: __ZNSt14_Bit_referenceaSEb, symObjAddr: 0xE4, symBinAddr: 0x100000874, symSize: 0x7C }
  - { offset: 0x2E089, size: 0x8, addend: 0x0, symName: __ZNKSt14_Bit_referencecvbEv, symObjAddr: 0xB0, symBinAddr: 0x100000840, symSize: 0x34 }
  - { offset: 0x2E0E7, size: 0x8, addend: 0x0, symName: __ZNSt14_Bit_referenceC1EPmm, symObjAddr: 0x7C, symBinAddr: 0x10000080C, symSize: 0x34 }
  - { offset: 0x2E11B, size: 0x8, addend: 0x0, symName: __ZSt3minImERKT_S2_S2_, symObjAddr: 0x44, symBinAddr: 0x1000007D4, symSize: 0x38 }
  - { offset: 0x2E164, size: 0x8, addend: 0x0, symName: __ZdlPvS_, symObjAddr: 0x2C, symBinAddr: 0x1000007BC, symSize: 0x18 }
  - { offset: 0x2E19A, size: 0x8, addend: 0x0, symName: __ZnwmPv, symObjAddr: 0x14, symBinAddr: 0x1000007A4, symSize: 0x18 }
  - { offset: 0x2E1CC, size: 0x8, addend: 0x0, symName: __ZSt17__size_to_integerm, symObjAddr: 0x0, symBinAddr: 0x100000790, symSize: 0x14 }
...
