---
triple:          'arm64-apple-darwin'
binary-path:     '/Users/shayan/Documents/Shayan-Documents/My-Programming/C++/USACO & CP/USACO & CP/USACO & CP/USACO Contests/Silver/2017-2018/2018 US Open/run'
relocations:
  - { offset: 0x22F22, size: 0x8, addend: 0x0, symName: __ZStL8__ioinit, symObjAddr: 0xABC83, symBinAddr: 0x100010001, symSize: 0x0 }
  - { offset: 0x23458, size: 0x8, addend: 0x0, symName: _board, symObjAddr: 0xABC88, symBinAddr: 0x100010008, symSize: 0x0 }
  - { offset: 0x2363F, size: 0x8, addend: 0x0, symName: _state, symObjAddr: 0xABCA0, symBinAddr: 0x100010020, symSize: 0x0 }
  - { offset: 0x23656, size: 0x8, addend: 0x0, symName: _sz, symObjAddr: 0xABCD0, symBinAddr: 0x100010050, symSize: 0x0 }
  - { offset: 0x23794, size: 0x8, addend: 0x0, symName: _neighbors, symObjAddr: 0xABCD8, symBinAddr: 0x100010058, symSize: 0x0 }
  - { offset: 0x237AB, size: 0x8, addend: 0x0, symName: _track_neighbors, symObjAddr: 0x5964, symBinAddr: 0x100010000, symSize: 0x0 }
  - { offset: 0x23D84, size: 0x8, addend: 0x0, symName: __GLOBAL__sub_I_multimoo.cpp, symObjAddr: 0x5E30, symBinAddr: 0x100006108, symSize: 0x14 }
  - { offset: 0x23D9C, size: 0x8, addend: 0x0, symName: __ZSt8_DestroyISt3setIiSt4lessIiESaIiEEEvPT_, symObjAddr: 0x5854, symBinAddr: 0x100006034, symSize: 0x20 }
  - { offset: 0x23DCE, size: 0x8, addend: 0x0, symName: __ZSt8_DestroyIPSt3setIiSt4lessIiESaIiEEEvT_S6_, symObjAddr: 0x5804, symBinAddr: 0x100005FE4, symSize: 0x50 }
  - { offset: 0x23E8C, size: 0x8, addend: 0x0, symName: __ZNSt6vectorISt3setIiSt4lessIiESaIiEESaIS4_EED1Ev, symObjAddr: 0x57A8, symBinAddr: 0x100005F88, symSize: 0x5C }
  - { offset: 0x23EE4, size: 0x8, addend: 0x0, symName: __Z41__static_initialization_and_destruction_0v, symObjAddr: 0x5D7C, symBinAddr: 0x100006054, symSize: 0xB4 }
  - { offset: 0x23F1A, size: 0x8, addend: 0x0, symName: __ZNSt3mapISt5arrayIiLm4EEiSt4lessIS1_ESaISt4pairIKS1_iEEED1Ev, symObjAddr: 0x5788, symBinAddr: 0x100005F68, symSize: 0x20 }
  - { offset: 0x23F3C, size: 0x8, addend: 0x0, symName: __ZNSt10_Head_baseILm0EOSt5arrayIiLm4EELb0EE7_M_headERS3_, symObjAddr: 0x5770, symBinAddr: 0x100005F50, symSize: 0x18 }
  - { offset: 0x23F65, size: 0x8, addend: 0x0, symName: __ZNSt11_Tuple_implILm0EJOSt5arrayIiLm4EEEE7_M_headERS3_, symObjAddr: 0x5754, symBinAddr: 0x100005F34, symSize: 0x1C }
  - { offset: 0x23F8F, size: 0x8, addend: 0x0, symName: __ZSt12__get_helperILm0EOSt5arrayIiLm4EEJEERT0_RSt11_Tuple_implIXT_EJS3_DpT1_EE, symObjAddr: 0x5738, symBinAddr: 0x100005F18, symSize: 0x1C }
  - { offset: 0x2403C, size: 0x8, addend: 0x0, symName: __ZSt3getILm0EJOSt5arrayIiLm4EEEERNSt13tuple_elementIXT_ESt5tupleIJDpT0_EEE4typeERS7_, symObjAddr: 0x571C, symBinAddr: 0x100005EFC, symSize: 0x1C }
  - { offset: 0x240A7, size: 0x8, addend: 0x0, symName: __ZSt18uninitialized_copyIN9__gnu_cxx17__normal_iteratorIPKiSt6vectorIiSaIiEEEEPiET0_T_SA_S9_, symObjAddr: 0x5684, symBinAddr: 0x100005E64, symSize: 0x98 }
  - { offset: 0x2429E, size: 0x8, addend: 0x0, symName: __ZSt9__fill_a1IPiiEvT_S1_RKT0_, symObjAddr: 0x5624, symBinAddr: 0x100005E04, symSize: 0x60 }
  - { offset: 0x243AE, size: 0x8, addend: 0x0, symName: __ZNSt4pairIKSt5arrayIiLm4EEiEC1IJOS1_EJLm0EEJEJEEERSt5tupleIJDpT_EERS6_IJDpT1_EESt12_Index_tupleIJXspT0_EEESF_IJXspT2_EEE, symObjAddr: 0x55D8, symBinAddr: 0x100005DB8, symSize: 0x4C }
  - { offset: 0x24450, size: 0x8, addend: 0x0, symName: __ZNK9__gnu_cxx5__ops15_Iter_less_iterclIPKiS4_EEbT_T0_, symObjAddr: 0x55A4, symBinAddr: 0x100005D84, symSize: 0x34 }
  - { offset: 0x244A8, size: 0x8, addend: 0x0, symName: __ZNSt8__lc_raiISt26random_access_iterator_tagS0_E6__cnd2IPKiEEbT_S5_, symObjAddr: 0x558C, symBinAddr: 0x100005D6C, symSize: 0x18 }
  - { offset: 0x244DC, size: 0x8, addend: 0x0, symName: __ZNSt8__lc_raiISt26random_access_iterator_tagS0_E10__newlast1IPKiS4_EET_S5_S5_T0_S6_, symObjAddr: 0x5520, symBinAddr: 0x100005D00, symSize: 0x6C }
  - { offset: 0x245B0, size: 0x8, addend: 0x0, symName: __ZSt22__uninitialized_copy_aIN9__gnu_cxx17__normal_iteratorIPKiSt6vectorIiSaIiEEEES7_PiiET1_T_T0_S9_RSaIT2_E, symObjAddr: 0x54F0, symBinAddr: 0x100005CD0, symSize: 0x30 }
  - { offset: 0x2462D, size: 0x8, addend: 0x0, symName: __ZNKSt6vectorIiSaIiEE3endEv, symObjAddr: 0x54C0, symBinAddr: 0x100005CA0, symSize: 0x30 }
  - { offset: 0x24681, size: 0x8, addend: 0x0, symName: __ZNKSt6vectorIiSaIiEE5beginEv, symObjAddr: 0x5494, symBinAddr: 0x100005C74, symSize: 0x2C }
  - { offset: 0x246EA, size: 0x8, addend: 0x0, symName: __ZNKSt12_Vector_baseIiSaIiEE19_M_get_Tp_allocatorEv, symObjAddr: 0x5480, symBinAddr: 0x100005C60, symSize: 0x14 }
  - { offset: 0x247BC, size: 0x8, addend: 0x0, symName: __ZNSt15__new_allocatorISt13_Rb_tree_nodeIiEE8allocateEmPKv, symObjAddr: 0x53F0, symBinAddr: 0x100005BD0, symSize: 0x90 }
  - { offset: 0x24836, size: 0x8, addend: 0x0, symName: __ZNK9__gnu_cxx16__aligned_membufISt4pairIKSt5arrayIiLm4EEiEE7_M_addrEv, symObjAddr: 0x53DC, symBinAddr: 0x100005BBC, symSize: 0x14 }
  - { offset: 0x248AB, size: 0x8, addend: 0x0, symName: __ZNSt4pairIKSt5arrayIiLm4EEiEC1IJOS1_EJEEESt21piecewise_construct_tSt5tupleIJDpT_EES7_IJDpT0_EE, symObjAddr: 0x53A0, symBinAddr: 0x100005B80, symSize: 0x3C }
  - { offset: 0x24925, size: 0x8, addend: 0x0, symName: __ZNSt11_Tuple_implILm0EJOSt5arrayIiLm4EEEEC2EOS3_, symObjAddr: 0x5378, symBinAddr: 0x100005B58, symSize: 0x28 }
  - { offset: 0x24966, size: 0x8, addend: 0x0, symName: __ZSt30__lexicographical_compare_implIPKiS1_N9__gnu_cxx5__ops15_Iter_less_iterEEbT_S5_T0_S6_T1_, symObjAddr: 0x5268, symBinAddr: 0x100005A48, symSize: 0x110 }
  - { offset: 0x249EF, size: 0x8, addend: 0x0, symName: __ZSt19__relocate_object_aISt3setIiSt4lessIiESaIiEES4_SaIS4_EEvPT_PT0_RT1_, symObjAddr: 0x5178, symBinAddr: 0x100005958, symSize: 0xF0 }
  - { offset: 0x24C06, size: 0x8, addend: 0x0, symName: __ZN9__gnu_cxx16__aligned_membufIiE7_M_addrEv, symObjAddr: 0x5164, symBinAddr: 0x100005944, symSize: 0x14 }
  - { offset: 0x24C58, size: 0x8, addend: 0x0, symName: __ZNSt6vectorIiSaIiEEC1ERKS1_, symObjAddr: 0x5050, symBinAddr: 0x100005830, symSize: 0x114 }
  - { offset: 0x24E81, size: 0x8, addend: 0x0, symName: __ZNK9__gnu_cxx16__aligned_membufISt4pairIKSt5arrayIiLm4EEiEE6_M_ptrEv, symObjAddr: 0x5034, symBinAddr: 0x100005814, symSize: 0x1C }
  - { offset: 0x24F31, size: 0x8, addend: 0x0, symName: __ZNSt5tupleIJOSt5arrayIiLm4EEEEC1EOS3_, symObjAddr: 0x500C, symBinAddr: 0x1000057EC, symSize: 0x28 }
  - { offset: 0x24F7E, size: 0x8, addend: 0x0, symName: __ZNSt15__new_allocatorISt13_Rb_tree_nodeISt4pairIKSt5arrayIiLm4EEiEEE8allocateEmPKv, symObjAddr: 0x4F74, symBinAddr: 0x100005754, symSize: 0x98 }
  - { offset: 0x24FF0, size: 0x8, addend: 0x0, symName: __ZNSt25__lexicographical_compareILb0EE4__lcIPKiS3_EEbT_S4_T0_S5_, symObjAddr: 0x4F30, symBinAddr: 0x100005710, symSize: 0x44 }
  - { offset: 0x2505F, size: 0x8, addend: 0x0, symName: __ZSt14__relocate_a_1IPSt3setIiSt4lessIiESaIiEES5_SaIS4_EET0_T_S8_S7_RT1_, symObjAddr: 0x4EB8, symBinAddr: 0x100005698, symSize: 0x78 }
  - { offset: 0x25153, size: 0x8, addend: 0x0, symName: __ZNSt15__new_allocatorISt3setIiSt4lessIiESaIiEEE8allocateEmPKv, symObjAddr: 0x4E28, symBinAddr: 0x100005608, symSize: 0x90 }
  - { offset: 0x251C9, size: 0x8, addend: 0x0, symName: __ZNKSt12_Vector_baseISt3setIiSt4lessIiESaIiEESaIS4_EE19_M_get_Tp_allocatorEv, symObjAddr: 0x4E14, symBinAddr: 0x1000055F4, symSize: 0x14 }
  - { offset: 0x251EF, size: 0x8, addend: 0x0, symName: __ZNSt6vectorISt3setIiSt4lessIiESaIiEESaIS4_EE11_S_max_sizeERKS5_, symObjAddr: 0x4DB8, symBinAddr: 0x100005598, symSize: 0x5C }
  - { offset: 0x252C5, size: 0x8, addend: 0x0, symName: __ZNSt15__new_allocatorISt13_Rb_tree_nodeIiEE10deallocateEPS1_m, symObjAddr: 0x4D7C, symBinAddr: 0x10000555C, symSize: 0x3C }
  - { offset: 0x2533B, size: 0x8, addend: 0x0, symName: __ZN9__gnu_cxx16__aligned_membufIiE6_M_ptrEv, symObjAddr: 0x4D60, symBinAddr: 0x100005540, symSize: 0x1C }
  - { offset: 0x25365, size: 0x8, addend: 0x0, symName: __ZNSt19_UninitDestroyGuardIPSt6vectorIiSaIiEEvE7releaseEv, symObjAddr: 0x4D44, symBinAddr: 0x100005524, symSize: 0x1C }
  - { offset: 0x2538B, size: 0x8, addend: 0x0, symName: __ZSt10_ConstructISt6vectorIiSaIiEEJRKS2_EEvPT_DpOT0_, symObjAddr: 0x4CA8, symBinAddr: 0x100005488, symSize: 0x9C }
  - { offset: 0x2541C, size: 0x8, addend: 0x0, symName: __ZNSt19_UninitDestroyGuardIPSt6vectorIiSaIiEEvED1Ev, symObjAddr: 0x4C50, symBinAddr: 0x100005430, symSize: 0x58 }
  - { offset: 0x25469, size: 0x8, addend: 0x0, symName: __ZNSt19_UninitDestroyGuardIPSt6vectorIiSaIiEEvEC1ERS3_, symObjAddr: 0x4C1C, symBinAddr: 0x1000053FC, symSize: 0x34 }
  - { offset: 0x25498, size: 0x8, addend: 0x0, symName: __ZNSt15__new_allocatorISt6vectorIiSaIiEEE8allocateEmPKv, symObjAddr: 0x4B8C, symBinAddr: 0x10000536C, symSize: 0x90 }
  - { offset: 0x2556D, size: 0x8, addend: 0x0, symName: __ZSt10_ConstructIiJEEvPT_DpOT0_, symObjAddr: 0x4B40, symBinAddr: 0x100005320, symSize: 0x4C }
  - { offset: 0x255CF, size: 0x8, addend: 0x0, symName: __ZNSt15__new_allocatorIiE8allocateEmPKv, symObjAddr: 0x4AC4, symBinAddr: 0x1000052A4, symSize: 0x7C }
  - { offset: 0x2565B, size: 0x8, addend: 0x0, symName: __ZNSt8_Rb_treeIiiSt9_IdentityIiESt4lessIiESaIiEE17_M_construct_nodeIJRKiEEEvPSt13_Rb_tree_nodeIiEDpOT_, symObjAddr: 0x49C4, symBinAddr: 0x1000051A4, symSize: 0x100 }
  - { offset: 0x257D9, size: 0x8, addend: 0x0, symName: __ZNSt8_Rb_treeIiiSt9_IdentityIiESt4lessIiESaIiEE11_M_get_nodeEv, symObjAddr: 0x4988, symBinAddr: 0x100005168, symSize: 0x3C }
  - { offset: 0x25830, size: 0x8, addend: 0x0, symName: __ZNKSt10_Select1stISt4pairIKSt5arrayIiLm4EEiEEclERKS4_, symObjAddr: 0x4970, symBinAddr: 0x100005150, symSize: 0x18 }
  - { offset: 0x2586B, size: 0x8, addend: 0x0, symName: __ZNKSt13_Rb_tree_nodeISt4pairIKSt5arrayIiLm4EEiEE9_M_valptrEv, symObjAddr: 0x4950, symBinAddr: 0x100005130, symSize: 0x20 }
  - { offset: 0x2592F, size: 0x8, addend: 0x0, symName: __ZSt30__lexicographical_compare_aux1IPKiS1_EbT_S2_T0_S3_, symObjAddr: 0x4918, symBinAddr: 0x1000050F8, symSize: 0x38 }
  - { offset: 0x259D2, size: 0x8, addend: 0x0, symName: __ZNSt15__new_allocatorISt13_Rb_tree_nodeISt4pairIKSt5arrayIiLm4EEiEEE10deallocateEPS6_m, symObjAddr: 0x48DC, symBinAddr: 0x1000050BC, symSize: 0x3C }
  - { offset: 0x25A44, size: 0x8, addend: 0x0, symName: __ZSt12__relocate_aIPSt3setIiSt4lessIiESaIiEES5_SaIS4_EET0_T_S8_S7_RT1_, symObjAddr: 0x4890, symBinAddr: 0x100005070, symSize: 0x4C }
  - { offset: 0x25B66, size: 0x8, addend: 0x0, symName: __ZNKSt6vectorISt3setIiSt4lessIiESaIiEESaIS4_EE8max_sizeEv, symObjAddr: 0x4870, symBinAddr: 0x100005050, symSize: 0x20 }
  - { offset: 0x25BB7, size: 0x8, addend: 0x0, symName: __ZNSt20_Rb_tree_key_compareISt4lessIiEEC2EOS2_, symObjAddr: 0x4858, symBinAddr: 0x100005038, symSize: 0x18 }
  - { offset: 0x25C68, size: 0x8, addend: 0x0, symName: __ZNSt13_Rb_tree_nodeIiE9_M_valptrEv, symObjAddr: 0x4838, symBinAddr: 0x100005018, symSize: 0x20 }
  - { offset: 0x25C92, size: 0x8, addend: 0x0, symName: __ZNSt8_Rb_treeIiiSt9_IdentityIiESt4lessIiESaIiEE21_M_get_Node_allocatorEv, symObjAddr: 0x4824, symBinAddr: 0x100005004, symSize: 0x14 }
  - { offset: 0x25CB8, size: 0x8, addend: 0x0, symName: __ZSt18__do_uninit_fill_nIPSt6vectorIiSaIiEEmS2_ET_S4_T0_RKT1_, symObjAddr: 0x477C, symBinAddr: 0x100004F5C, symSize: 0xA8 }
  - { offset: 0x25DA9, size: 0x8, addend: 0x0, symName: __ZNSt27__uninitialized_default_n_1ILb1EE18__uninit_default_nIPimEET_S3_T0_, symObjAddr: 0x4688, symBinAddr: 0x100004E68, symSize: 0xF4 }
  - { offset: 0x25F1A, size: 0x8, addend: 0x0, symName: __ZNSt15__new_allocatorIiE10deallocateEPim, symObjAddr: 0x4658, symBinAddr: 0x100004E38, symSize: 0x30 }
  - { offset: 0x25F9E, size: 0x8, addend: 0x0, symName: __ZNSt8_Rb_treeIiiSt9_IdentityIiESt4lessIiESaIiEE14_M_create_nodeIJRKiEEEPSt13_Rb_tree_nodeIiEDpOT_, symObjAddr: 0x4614, symBinAddr: 0x100004DF4, symSize: 0x44 }
  - { offset: 0x26018, size: 0x8, addend: 0x0, symName: __ZNSt8_Rb_treeIiiSt9_IdentityIiESt4lessIiESaIiEE6_S_keyERKSt13_Rb_tree_nodeIiE, symObjAddr: 0x45EC, symBinAddr: 0x100004DCC, symSize: 0x28 }
  - { offset: 0x26042, size: 0x8, addend: 0x0, symName: __ZNSt9__rb_tree12_Node_traitsISt4pairIKSt5arrayIiLm4EEiEPS5_E23_S_insert_and_rebalanceEbPSt18_Rb_tree_node_baseS9_RS8_, symObjAddr: 0x45B4, symBinAddr: 0x100004D94, symSize: 0x38 }
  - { offset: 0x260A3, size: 0x8, addend: 0x0, symName: __ZNSt8_Rb_treeISt5arrayIiLm4EESt4pairIKS1_iESt10_Select1stIS4_ESt4lessIS1_ESaIS4_EE5beginEv, symObjAddr: 0x458C, symBinAddr: 0x100004D6C, symSize: 0x28 }
  - { offset: 0x2611E, size: 0x8, addend: 0x0, symName: __ZNSt8_Rb_treeISt5arrayIiLm4EESt4pairIKS1_iESt10_Select1stIS4_ESt4lessIS1_ESaIS4_EE6_S_keyERKSt13_Rb_tree_nodeIS4_E, symObjAddr: 0x4564, symBinAddr: 0x100004D44, symSize: 0x28 }
  - { offset: 0x2614C, size: 0x8, addend: 0x0, symName: __ZNSt8_Rb_treeISt5arrayIiLm4EESt4pairIKS1_iESt10_Select1stIS4_ESt4lessIS1_ESaIS4_EE17_M_construct_nodeIJRKSt21piecewise_construct_tSt5tupleIJOS1_EESF_IJEEEEEvPSt13_Rb_tree_nodeIS4_EDpOT_, symObjAddr: 0x4394, symBinAddr: 0x100004B74, symSize: 0x1D0 }
  - { offset: 0x2639C, size: 0x8, addend: 0x0, symName: __ZNSt8_Rb_treeISt5arrayIiLm4EESt4pairIKS1_iESt10_Select1stIS4_ESt4lessIS1_ESaIS4_EE11_M_get_nodeEv, symObjAddr: 0x4358, symBinAddr: 0x100004B38, symSize: 0x3C }
  - { offset: 0x26423, size: 0x8, addend: 0x0, symName: __ZNSt10_Head_baseILm0EOSt5arrayIiLm4EELb0EEC2IS1_EEOT_, symObjAddr: 0x432C, symBinAddr: 0x100004B0C, symSize: 0x2C }
  - { offset: 0x2647A, size: 0x8, addend: 0x0, symName: __ZSt29__lexicographical_compare_auxIPKiS1_EbT_S2_T0_S3_, symObjAddr: 0x42D8, symBinAddr: 0x100004AB8, symSize: 0x54 }
  - { offset: 0x2657D, size: 0x8, addend: 0x0, symName: __ZNKSt5arrayIiLm4EE4dataEv, symObjAddr: 0x42C4, symBinAddr: 0x100004AA4, symSize: 0x14 }
  - { offset: 0x265AB, size: 0x8, addend: 0x0, symName: __ZN9__gnu_cxx16__aligned_membufISt4pairIKSt5arrayIiLm4EEiEE7_M_addrEv, symObjAddr: 0x42B0, symBinAddr: 0x100004A90, symSize: 0x14 }
  - { offset: 0x265D1, size: 0x8, addend: 0x0, symName: __ZNSt8_Rb_treeISt5arrayIiLm4EESt4pairIKS1_iESt10_Select1stIS4_ESt4lessIS1_ESaIS4_EE7_S_leftEPSt18_Rb_tree_node_base, symObjAddr: 0x4298, symBinAddr: 0x100004A78, symSize: 0x18 }
  - { offset: 0x2665E, size: 0x8, addend: 0x0, symName: __ZNSt8_Rb_treeISt5arrayIiLm4EESt4pairIKS1_iESt10_Select1stIS4_ESt4lessIS1_ESaIS4_EE21_M_get_Node_allocatorEv, symObjAddr: 0x4284, symBinAddr: 0x100004A64, symSize: 0x14 }
  - { offset: 0x2668C, size: 0x8, addend: 0x0, symName: __ZNK9__gnu_cxx16__aligned_membufIiE7_M_addrEv, symObjAddr: 0x4270, symBinAddr: 0x100004A50, symSize: 0x14 }
  - { offset: 0x266B6, size: 0x8, addend: 0x0, symName: __ZNSt12_Vector_baseISt3setIiSt4lessIiESaIiEESaIS4_EE19_M_get_Tp_allocatorEv, symObjAddr: 0x425C, symBinAddr: 0x100004A3C, symSize: 0x14 }
  - { offset: 0x266DC, size: 0x8, addend: 0x0, symName: __ZNSt6vectorISt3setIiSt4lessIiESaIiEESaIS4_EE11_S_relocateEPS4_S7_S7_RS5_, symObjAddr: 0x4228, symBinAddr: 0x100004A08, symSize: 0x34 }
  - { offset: 0x26775, size: 0x8, addend: 0x0, symName: __ZNSt6vectorISt3setIiSt4lessIiESaIiEESaIS4_EE12_Guard_allocD1Ev, symObjAddr: 0x41DC, symBinAddr: 0x1000049BC, symSize: 0x4C }
  - { offset: 0x267DF, size: 0x8, addend: 0x0, symName: __ZNSt6vectorISt3setIiSt4lessIiESaIiEESaIS4_EE12_Guard_allocC1EPS4_mRSt12_Vector_baseIS4_S5_E, symObjAddr: 0x4198, symBinAddr: 0x100004978, symSize: 0x44 }
  - { offset: 0x26820, size: 0x8, addend: 0x0, symName: __ZNSt12_Vector_baseISt3setIiSt4lessIiESaIiEESaIS4_EE11_M_allocateEm, symObjAddr: 0x4148, symBinAddr: 0x100004928, symSize: 0x50 }
  - { offset: 0x268C4, size: 0x8, addend: 0x0, symName: __ZNSt6vectorISt3setIiSt4lessIiESaIiEESaIS4_EE5beginEv, symObjAddr: 0x411C, symBinAddr: 0x1000048FC, symSize: 0x2C }
  - { offset: 0x26918, size: 0x8, addend: 0x0, symName: __ZNKSt6vectorISt3setIiSt4lessIiESaIiEESaIS4_EE12_M_check_lenEmPKc, symObjAddr: 0x404C, symBinAddr: 0x10000482C, symSize: 0xD0 }
  - { offset: 0x269DA, size: 0x8, addend: 0x0, symName: __ZNSt3setIiSt4lessIiESaIiEEC1EOS3_, symObjAddr: 0x4024, symBinAddr: 0x100004804, symSize: 0x28 }
  - { offset: 0x26A28, size: 0x8, addend: 0x0, symName: __ZNSt8_Rb_treeIiiSt9_IdentityIiESt4lessIiESaIiEEC1EOS5_, symObjAddr: 0x3FFC, symBinAddr: 0x1000047DC, symSize: 0x28 }
  - { offset: 0x26A76, size: 0x8, addend: 0x0, symName: __ZNSt8_Rb_treeIiiSt9_IdentityIiESt4lessIiESaIiEE13_Rb_tree_implIS3_Lb1EEC1EOS7_, symObjAddr: 0x3F90, symBinAddr: 0x100004770, symSize: 0x6C }
  - { offset: 0x26AFE, size: 0x8, addend: 0x0, symName: __ZNSt8_Rb_treeIiiSt9_IdentityIiESt4lessIiESaIiEE11_M_put_nodeEPSt13_Rb_tree_nodeIiE, symObjAddr: 0x3F44, symBinAddr: 0x100004724, symSize: 0x4C }
  - { offset: 0x26B6F, size: 0x8, addend: 0x0, symName: __ZNSt8_Rb_treeIiiSt9_IdentityIiESt4lessIiESaIiEE15_M_destroy_nodeEPSt13_Rb_tree_nodeIiE, symObjAddr: 0x3EEC, symBinAddr: 0x1000046CC, symSize: 0x58 }
  - { offset: 0x26C04, size: 0x8, addend: 0x0, symName: __ZNSt12_Vector_baseISt6vectorIiSaIiEESaIS2_EE17_Vector_impl_data12_M_copy_dataERKS5_, symObjAddr: 0x3EA4, symBinAddr: 0x100004684, symSize: 0x48 }
  - { offset: 0x26C66, size: 0x8, addend: 0x0, symName: __ZNSt12_Vector_baseISt6vectorIiSaIiEESaIS2_EEC2ERKS3_, symObjAddr: 0x3E7C, symBinAddr: 0x10000465C, symSize: 0x28 }
  - { offset: 0x26C95, size: 0x8, addend: 0x0, symName: __ZNKSt12_Vector_baseISt6vectorIiSaIiEESaIS2_EE19_M_get_Tp_allocatorEv, symObjAddr: 0x3E68, symBinAddr: 0x100004648, symSize: 0x14 }
  - { offset: 0x26CBB, size: 0x8, addend: 0x0, symName: __ZSt8_DestroyISt6vectorIiSaIiEEEvPT_, symObjAddr: 0x3E48, symBinAddr: 0x100004628, symSize: 0x20 }
  - { offset: 0x26D0B, size: 0x8, addend: 0x0, symName: __ZSt20uninitialized_fill_nIPSt6vectorIiSaIiEEmS2_ET_S4_T0_RKT1_, symObjAddr: 0x3E1C, symBinAddr: 0x1000045FC, symSize: 0x2C }
  - { offset: 0x26D76, size: 0x8, addend: 0x0, symName: __ZNSt12_Vector_baseISt6vectorIiSaIiEESaIS2_EE11_M_allocateEm, symObjAddr: 0x3DCC, symBinAddr: 0x1000045AC, symSize: 0x50 }
  - { offset: 0x26E0B, size: 0x8, addend: 0x0, symName: __ZSt25__uninitialized_default_nIPimET_S1_T0_, symObjAddr: 0x3DA0, symBinAddr: 0x100004580, symSize: 0x2C }
  - { offset: 0x26E9F, size: 0x8, addend: 0x0, symName: __ZNSt12_Vector_baseIiSaIiEE11_M_allocateEm, symObjAddr: 0x3D50, symBinAddr: 0x100004530, symSize: 0x50 }
  - { offset: 0x26F21, size: 0x8, addend: 0x0, symName: __ZNSt12_Vector_baseIiSaIiEE17_Vector_impl_dataC2Ev, symObjAddr: 0x3D24, symBinAddr: 0x100004504, symSize: 0x2C }
  - { offset: 0x26F9F, size: 0x8, addend: 0x0, symName: __ZNSt9__rb_tree12_Node_traitsIiPiE23_S_insert_and_rebalanceEbPSt18_Rb_tree_node_baseS4_RS3_, symObjAddr: 0x3CEC, symBinAddr: 0x1000044CC, symSize: 0x38 }
  - { offset: 0x2700B, size: 0x8, addend: 0x0, symName: __ZNKSt8_Rb_treeIiiSt9_IdentityIiESt4lessIiESaIiEE11_Alloc_nodeclIRKiEEPSt13_Rb_tree_nodeIiEOT_, symObjAddr: 0x3CBC, symBinAddr: 0x10000449C, symSize: 0x30 }
  - { offset: 0x27073, size: 0x8, addend: 0x0, symName: __ZNSt17_Rb_tree_iteratorIiEmmEv, symObjAddr: 0x3C8C, symBinAddr: 0x10000446C, symSize: 0x30 }
  - { offset: 0x2709F, size: 0x8, addend: 0x0, symName: __ZSteqRKSt17_Rb_tree_iteratorIiES2_, symObjAddr: 0x3C5C, symBinAddr: 0x10000443C, symSize: 0x30 }
  - { offset: 0x270DE, size: 0x8, addend: 0x0, symName: __ZNSt8_Rb_treeIiiSt9_IdentityIiESt4lessIiESaIiEE5beginEv, symObjAddr: 0x3C34, symBinAddr: 0x100004414, symSize: 0x28 }
  - { offset: 0x27104, size: 0x8, addend: 0x0, symName: __ZNSt8_Rb_treeIiiSt9_IdentityIiESt4lessIiESaIiEE8_S_rightEPSt18_Rb_tree_node_base, symObjAddr: 0x3C1C, symBinAddr: 0x1000043FC, symSize: 0x18 }
  - { offset: 0x2712E, size: 0x8, addend: 0x0, symName: __ZNSt8_Rb_treeIiiSt9_IdentityIiESt4lessIiESaIiEE7_S_leftEPSt18_Rb_tree_node_base, symObjAddr: 0x3C04, symBinAddr: 0x1000043E4, symSize: 0x18 }
  - { offset: 0x2715C, size: 0x8, addend: 0x0, symName: __ZNKSt4lessIiEclERKiS2_, symObjAddr: 0x3BD0, symBinAddr: 0x1000043B0, symSize: 0x34 }
  - { offset: 0x271A4, size: 0x8, addend: 0x0, symName: __ZNSt8_Rb_treeIiiSt9_IdentityIiESt4lessIiESaIiEE6_S_keyEPSt18_Rb_tree_node_base, symObjAddr: 0x3BB4, symBinAddr: 0x100004394, symSize: 0x1C }
  - { offset: 0x271D2, size: 0x8, addend: 0x0, symName: __ZNKSt8_Rb_treeIiiSt9_IdentityIiESt4lessIiESaIiEE8_M_beginEv, symObjAddr: 0x3B9C, symBinAddr: 0x10000437C, symSize: 0x18 }
  - { offset: 0x27236, size: 0x8, addend: 0x0, symName: __ZNSt8_Rb_treeISt5arrayIiLm4EESt4pairIKS1_iESt10_Select1stIS4_ESt4lessIS1_ESaIS4_EE14_M_insert_nodeEPSt18_Rb_tree_node_baseSC_PSt13_Rb_tree_nodeIS4_E, symObjAddr: 0x3AC0, symBinAddr: 0x1000042A0, symSize: 0xDC }
  - { offset: 0x272B1, size: 0x8, addend: 0x0, symName: __ZNSt8_Rb_treeISt5arrayIiLm4EESt4pairIKS1_iESt10_Select1stIS4_ESt4lessIS1_ESaIS4_EE6_S_keyEPSt13_Rb_tree_nodeIS4_E, symObjAddr: 0x3AA4, symBinAddr: 0x100004284, symSize: 0x1C }
  - { offset: 0x27327, size: 0x8, addend: 0x0, symName: __ZNSt4pairIPSt18_Rb_tree_node_baseS1_EC1IRS1_S1_Lb1EEEOT_OT0_, symObjAddr: 0x3A58, symBinAddr: 0x100004238, symSize: 0x4C }
  - { offset: 0x273B9, size: 0x8, addend: 0x0, symName: __ZNSt17_Rb_tree_iteratorISt4pairIKSt5arrayIiLm4EEiEEppEv, symObjAddr: 0x3A28, symBinAddr: 0x100004208, symSize: 0x30 }
  - { offset: 0x273DF, size: 0x8, addend: 0x0, symName: __ZNSt8_Rb_treeISt5arrayIiLm4EESt4pairIKS1_iESt10_Select1stIS4_ESt4lessIS1_ESaIS4_EE8_S_rightEPSt18_Rb_tree_node_base, symObjAddr: 0x3A10, symBinAddr: 0x1000041F0, symSize: 0x18 }
  - { offset: 0x2740D, size: 0x8, addend: 0x0, symName: __ZNSt17_Rb_tree_iteratorISt4pairIKSt5arrayIiLm4EEiEEmmEv, symObjAddr: 0x39E0, symBinAddr: 0x1000041C0, symSize: 0x30 }
  - { offset: 0x2747F, size: 0x8, addend: 0x0, symName: __ZNSt4pairIPSt18_Rb_tree_node_baseS1_EC1IRS1_S4_Lb1EEEOT_OT0_, symObjAddr: 0x3994, symBinAddr: 0x100004174, symSize: 0x4C }
  - { offset: 0x27511, size: 0x8, addend: 0x0, symName: __ZNSt8_Rb_treeISt5arrayIiLm4EESt4pairIKS1_iESt10_Select1stIS4_ESt4lessIS1_ESaIS4_EE11_M_leftmostEv, symObjAddr: 0x397C, symBinAddr: 0x10000415C, symSize: 0x18 }
  - { offset: 0x2753B, size: 0x8, addend: 0x0, symName: __ZNSt8_Rb_treeISt5arrayIiLm4EESt4pairIKS1_iESt10_Select1stIS4_ESt4lessIS1_ESaIS4_EE24_M_get_insert_unique_posERS3_, symObjAddr: 0x3824, symBinAddr: 0x100004004, symSize: 0x158 }
  - { offset: 0x27607, size: 0x8, addend: 0x0, symName: __ZNSt4pairIPSt18_Rb_tree_node_baseS1_EC1IS1_RS1_Lb1EEEOT_OT0_, symObjAddr: 0x37D8, symBinAddr: 0x100003FB8, symSize: 0x4C }
  - { offset: 0x27695, size: 0x8, addend: 0x0, symName: __ZNSt8_Rb_treeISt5arrayIiLm4EESt4pairIKS1_iESt10_Select1stIS4_ESt4lessIS1_ESaIS4_EE6_S_keyEPSt18_Rb_tree_node_base, symObjAddr: 0x37BC, symBinAddr: 0x100003F9C, symSize: 0x1C }
  - { offset: 0x276C3, size: 0x8, addend: 0x0, symName: __ZNSt8_Rb_treeISt5arrayIiLm4EESt4pairIKS1_iESt10_Select1stIS4_ESt4lessIS1_ESaIS4_EE12_M_rightmostEv, symObjAddr: 0x37A4, symBinAddr: 0x100003F84, symSize: 0x18 }
  - { offset: 0x276ED, size: 0x8, addend: 0x0, symName: __ZNKSt8_Rb_treeISt5arrayIiLm4EESt4pairIKS1_iESt10_Select1stIS4_ESt4lessIS1_ESaIS4_EE4sizeEv, symObjAddr: 0x378C, symBinAddr: 0x100003F6C, symSize: 0x18 }
  - { offset: 0x27717, size: 0x8, addend: 0x0, symName: __ZNSt8_Rb_treeISt5arrayIiLm4EESt4pairIKS1_iESt10_Select1stIS4_ESt4lessIS1_ESaIS4_EE14_M_create_nodeIJRKSt21piecewise_construct_tSt5tupleIJOS1_EESF_IJEEEEEPSt13_Rb_tree_nodeIS4_EDpOT_, symObjAddr: 0x3720, symBinAddr: 0x100003F00, symSize: 0x6C }
  - { offset: 0x2782A, size: 0x8, addend: 0x0, symName: __ZNSt11_Tuple_implILm0EJOSt5arrayIiLm4EEEEC2IS1_EEOT_, symObjAddr: 0x36F0, symBinAddr: 0x100003ED0, symSize: 0x30 }
  - { offset: 0x27882, size: 0x8, addend: 0x0, symName: __ZSt23lexicographical_compareIPKiS1_EbT_S2_T0_S3_, symObjAddr: 0x36BC, symBinAddr: 0x100003E9C, symSize: 0x34 }
  - { offset: 0x278F5, size: 0x8, addend: 0x0, symName: __ZNKSt5arrayIiLm4EE3endEv, symObjAddr: 0x369C, symBinAddr: 0x100003E7C, symSize: 0x20 }
  - { offset: 0x2791F, size: 0x8, addend: 0x0, symName: __ZNKSt5arrayIiLm4EE5beginEv, symObjAddr: 0x3680, symBinAddr: 0x100003E60, symSize: 0x1C }
  - { offset: 0x27949, size: 0x8, addend: 0x0, symName: __ZN9__gnu_cxx16__aligned_membufISt4pairIKSt5arrayIiLm4EEiEE6_M_ptrEv, symObjAddr: 0x3664, symBinAddr: 0x100003E44, symSize: 0x1C }
  - { offset: 0x27973, size: 0x8, addend: 0x0, symName: __ZNKSt8_Rb_treeISt5arrayIiLm4EESt4pairIKS1_iESt10_Select1stIS4_ESt4lessIS1_ESaIS4_EE6_M_endEv, symObjAddr: 0x3644, symBinAddr: 0x100003E24, symSize: 0x20 }
  - { offset: 0x2799D, size: 0x8, addend: 0x0, symName: __ZNKSt8_Rb_treeISt5arrayIiLm4EESt4pairIKS1_iESt10_Select1stIS4_ESt4lessIS1_ESaIS4_EE8_M_beginEv, symObjAddr: 0x362C, symBinAddr: 0x100003E0C, symSize: 0x18 }
  - { offset: 0x279C7, size: 0x8, addend: 0x0, symName: __ZNKSt8_Rb_treeISt5arrayIiLm4EESt4pairIKS1_iESt10_Select1stIS4_ESt4lessIS1_ESaIS4_EE14_M_lower_boundEPSt18_Rb_tree_node_baseSC_RS3_, symObjAddr: 0x359C, symBinAddr: 0x100003D7C, symSize: 0x90 }
  - { offset: 0x27A24, size: 0x8, addend: 0x0, symName: __ZNSt15__new_allocatorISt3setIiSt4lessIiESaIiEEE10deallocateEPS4_m, symObjAddr: 0x3560, symBinAddr: 0x100003D40, symSize: 0x3C }
  - { offset: 0x27A6E, size: 0x8, addend: 0x0, symName: __ZNSt8_Rb_treeISt5arrayIiLm4EESt4pairIKS1_iESt10_Select1stIS4_ESt4lessIS1_ESaIS4_EE11_M_put_nodeEPSt13_Rb_tree_nodeIS4_E, symObjAddr: 0x3514, symBinAddr: 0x100003CF4, symSize: 0x4C }
  - { offset: 0x27ADF, size: 0x8, addend: 0x0, symName: __ZNSt8_Rb_treeISt5arrayIiLm4EESt4pairIKS1_iESt10_Select1stIS4_ESt4lessIS1_ESaIS4_EE15_M_destroy_nodeEPSt13_Rb_tree_nodeIS4_E, symObjAddr: 0x34BC, symBinAddr: 0x100003C9C, symSize: 0x58 }
  - { offset: 0x27B74, size: 0x8, addend: 0x0, symName: __ZNSt15__new_allocatorISt6vectorIiSaIiEEE10deallocateEPS2_m, symObjAddr: 0x3480, symBinAddr: 0x100003C60, symSize: 0x3C }
  - { offset: 0x27BBE, size: 0x8, addend: 0x0, symName: __ZNK9__gnu_cxx16__aligned_membufIiE6_M_ptrEv, symObjAddr: 0x3464, symBinAddr: 0x100003C44, symSize: 0x1C }
  - { offset: 0x27BE8, size: 0x8, addend: 0x0, symName: __ZNKSt8_Rb_treeIiiSt9_IdentityIiESt4lessIiESaIiEE6_M_endEv, symObjAddr: 0x3444, symBinAddr: 0x100003C24, symSize: 0x20 }
  - { offset: 0x27C3A, size: 0x8, addend: 0x0, symName: __ZNSt23_Rb_tree_const_iteratorIiEC1EPSt18_Rb_tree_node_base, symObjAddr: 0x3420, symBinAddr: 0x100003C00, symSize: 0x24 }
  - { offset: 0x27C69, size: 0x8, addend: 0x0, symName: __ZNSt6vectorISt3setIiSt4lessIiESaIiEESaIS4_EE17_M_realloc_appendIJS4_EEEvDpOT_, symObjAddr: 0x31E8, symBinAddr: 0x1000039C8, symSize: 0x238 }
  - { offset: 0x27F1F, size: 0x8, addend: 0x0, symName: __ZNSt13_Rb_tree_nodeIiE11_M_node_ptrEv, symObjAddr: 0x31D4, symBinAddr: 0x1000039B4, symSize: 0x14 }
  - { offset: 0x27F49, size: 0x8, addend: 0x0, symName: __ZNSt8_Rb_treeIiiSt9_IdentityIiESt4lessIiESaIiEE12_M_drop_nodeEPSt13_Rb_tree_nodeIiE, symObjAddr: 0x31A0, symBinAddr: 0x100003980, symSize: 0x34 }
  - { offset: 0x27F80, size: 0x8, addend: 0x0, symName: __ZNSt8_Rb_treeIiiSt9_IdentityIiESt4lessIiESaIiEE7_S_leftEPSt13_Rb_tree_nodeIiE, symObjAddr: 0x3168, symBinAddr: 0x100003948, symSize: 0x38 }
  - { offset: 0x27FAA, size: 0x8, addend: 0x0, symName: __ZNSt8_Rb_treeIiiSt9_IdentityIiESt4lessIiESaIiEE8_S_rightEPSt13_Rb_tree_nodeIiE, symObjAddr: 0x3130, symBinAddr: 0x100003910, symSize: 0x38 }
  - { offset: 0x2801B, size: 0x8, addend: 0x0, symName: __ZNSt12_Vector_baseISt6vectorIiSaIiEESaIS2_EE17_Vector_impl_data12_M_swap_dataERS5_, symObjAddr: 0x30E4, symBinAddr: 0x1000038C4, symSize: 0x4C }
  - { offset: 0x2808D, size: 0x8, addend: 0x0, symName: __ZNSt6vectorIS_IiSaIiEESaIS1_EEC1ERKS2_, symObjAddr: 0x30BC, symBinAddr: 0x10000389C, symSize: 0x28 }
  - { offset: 0x280BC, size: 0x8, addend: 0x0, symName: __ZNKSt12_Vector_baseISt6vectorIiSaIiEESaIS2_EE13get_allocatorEv, symObjAddr: 0x306C, symBinAddr: 0x10000384C, symSize: 0x50 }
  - { offset: 0x2813B, size: 0x8, addend: 0x0, symName: __ZSt8_DestroyIPSt6vectorIiSaIiEEEvT_S4_, symObjAddr: 0x301C, symBinAddr: 0x1000037FC, symSize: 0x50 }
  - { offset: 0x281A0, size: 0x8, addend: 0x0, symName: __ZSt24__uninitialized_fill_n_aIPSt6vectorIiSaIiEEmS2_S2_ET_S4_T0_RKT1_RSaIT2_E, symObjAddr: 0x2FEC, symBinAddr: 0x1000037CC, symSize: 0x30 }
  - { offset: 0x2821D, size: 0x8, addend: 0x0, symName: __ZNSt12_Vector_baseISt6vectorIiSaIiEESaIS2_EE17_M_create_storageEm, symObjAddr: 0x2F80, symBinAddr: 0x100003760, symSize: 0x6C }
  - { offset: 0x2827F, size: 0x8, addend: 0x0, symName: __ZNSt12_Vector_baseISt6vectorIiSaIiEESaIS2_EE12_Vector_implC1ERKS3_, symObjAddr: 0x2F34, symBinAddr: 0x100003714, symSize: 0x4C }
  - { offset: 0x28325, size: 0x8, addend: 0x0, symName: __ZNSt6vectorIS_IiSaIiEESaIS1_EE11_S_max_sizeERKS2_, symObjAddr: 0x2ED8, symBinAddr: 0x1000036B8, symSize: 0x5C }
  - { offset: 0x283DC, size: 0x8, addend: 0x0, symName: __ZSt8_DestroyIPiEvT_S1_, symObjAddr: 0x2EC0, symBinAddr: 0x1000036A0, symSize: 0x18 }
  - { offset: 0x2841E, size: 0x8, addend: 0x0, symName: __ZSt27__uninitialized_default_n_aIPimiET_S1_T0_RSaIT1_E, symObjAddr: 0x2E98, symBinAddr: 0x100003678, symSize: 0x28 }
  - { offset: 0x28481, size: 0x8, addend: 0x0, symName: __ZNSt12_Vector_baseIiSaIiEE13_M_deallocateEPim, symObjAddr: 0x2E40, symBinAddr: 0x100003620, symSize: 0x58 }
  - { offset: 0x28503, size: 0x8, addend: 0x0, symName: __ZNSt12_Vector_baseIiSaIiEE17_M_create_storageEm, symObjAddr: 0x2DE0, symBinAddr: 0x1000035C0, symSize: 0x60 }
  - { offset: 0x28565, size: 0x8, addend: 0x0, symName: __ZNSt12_Vector_baseIiSaIiEE12_Vector_implC1ERKS0_, symObjAddr: 0x2D94, symBinAddr: 0x100003574, symSize: 0x4C }
  - { offset: 0x2860B, size: 0x8, addend: 0x0, symName: __ZNSt6vectorIiSaIiEE11_S_max_sizeERKS0_, symObjAddr: 0x2D40, symBinAddr: 0x100003520, symSize: 0x54 }
  - { offset: 0x286EE, size: 0x8, addend: 0x0, symName: __ZNSt23_Rb_tree_const_iteratorIiEC1ERKSt17_Rb_tree_iteratorIiE, symObjAddr: 0x2D18, symBinAddr: 0x1000034F8, symSize: 0x28 }
  - { offset: 0x2878D, size: 0x8, addend: 0x0, symName: __ZNSt17_Rb_tree_iteratorIiEC1EPSt18_Rb_tree_node_base, symObjAddr: 0x2CF4, symBinAddr: 0x1000034D4, symSize: 0x24 }
  - { offset: 0x2880B, size: 0x8, addend: 0x0, symName: __ZNSt4pairISt17_Rb_tree_iteratorIiEbEC1IS1_bLb1EEEOT_OT0_, symObjAddr: 0x2CA8, symBinAddr: 0x100003488, symSize: 0x4C }
  - { offset: 0x288A3, size: 0x8, addend: 0x0, symName: __ZNSt8_Rb_treeIiiSt9_IdentityIiESt4lessIiESaIiEE10_M_insert_IRKiNS5_11_Alloc_nodeEEESt17_Rb_tree_iteratorIiEPSt18_Rb_tree_node_baseSD_OT_RT0_, symObjAddr: 0x2BB0, symBinAddr: 0x100003390, symSize: 0xF8 }
  - { offset: 0x289B8, size: 0x8, addend: 0x0, symName: __ZNSt8_Rb_treeIiiSt9_IdentityIiESt4lessIiESaIiEE11_Alloc_nodeC1ERS5_, symObjAddr: 0x2B8C, symBinAddr: 0x10000336C, symSize: 0x24 }
  - { offset: 0x289E7, size: 0x8, addend: 0x0, symName: __ZNKSt9_IdentityIiEclERKi, symObjAddr: 0x2B74, symBinAddr: 0x100003354, symSize: 0x18 }
  - { offset: 0x28A22, size: 0x8, addend: 0x0, symName: __ZNSt8_Rb_treeIiiSt9_IdentityIiESt4lessIiESaIiEE24_M_get_insert_unique_posERKi, symObjAddr: 0x2A1C, symBinAddr: 0x1000031FC, symSize: 0x158 }
  - { offset: 0x28B06, size: 0x8, addend: 0x0, symName: __ZNKSt6vectorISt3setIiSt4lessIiESaIiEESaIS4_EE3endEv, symObjAddr: 0x29EC, symBinAddr: 0x1000031CC, symSize: 0x30 }
  - { offset: 0x28B5A, size: 0x8, addend: 0x0, symName: __ZNKSt6vectorISt3setIiSt4lessIiESaIiEESaIS4_EE5beginEv, symObjAddr: 0x29C0, symBinAddr: 0x1000031A0, symSize: 0x2C }
  - { offset: 0x28BD6, size: 0x8, addend: 0x0, symName: __ZNSt17_Rb_tree_iteratorISt4pairIKSt5arrayIiLm4EEiEEC1EPSt18_Rb_tree_node_base, symObjAddr: 0x299C, symBinAddr: 0x10000317C, symSize: 0x24 }
  - { offset: 0x28C05, size: 0x8, addend: 0x0, symName: __ZNSt8_Rb_treeISt5arrayIiLm4EESt4pairIKS1_iESt10_Select1stIS4_ESt4lessIS1_ESaIS4_EE10_Auto_node9_M_insertES2_IPSt18_Rb_tree_node_baseSD_E, symObjAddr: 0x2950, symBinAddr: 0x100003130, symSize: 0x4C }
  - { offset: 0x28C51, size: 0x8, addend: 0x0, symName: __ZNKSt8_Rb_treeISt5arrayIiLm4EESt4pairIKS1_iESt10_Select1stIS4_ESt4lessIS1_ESaIS4_EE10_Auto_node6_M_keyEv, symObjAddr: 0x2930, symBinAddr: 0x100003110, symSize: 0x20 }
  - { offset: 0x28C7B, size: 0x8, addend: 0x0, symName: __ZNSt8_Rb_treeISt5arrayIiLm4EESt4pairIKS1_iESt10_Select1stIS4_ESt4lessIS1_ESaIS4_EE29_M_get_insert_hint_unique_posESt23_Rb_tree_const_iteratorIS4_ERS3_, symObjAddr: 0x2610, symBinAddr: 0x100002DF0, symSize: 0x320 }
  - { offset: 0x28D2E, size: 0x8, addend: 0x0, symName: __ZNSt8_Rb_treeISt5arrayIiLm4EESt4pairIKS1_iESt10_Select1stIS4_ESt4lessIS1_ESaIS4_EE10_Auto_nodeD1Ev, symObjAddr: 0x25CC, symBinAddr: 0x100002DAC, symSize: 0x44 }
  - { offset: 0x28DAB, size: 0x8, addend: 0x0, symName: __ZNSt8_Rb_treeISt5arrayIiLm4EESt4pairIKS1_iESt10_Select1stIS4_ESt4lessIS1_ESaIS4_EE10_Auto_nodeC1IJRKSt21piecewise_construct_tSt5tupleIJOS1_EESG_IJEEEEERSA_DpOT_, symObjAddr: 0x2554, symBinAddr: 0x100002D34, symSize: 0x78 }
  - { offset: 0x28F2D, size: 0x8, addend: 0x0, symName: __ZNSt5tupleIJOSt5arrayIiLm4EEEEC1IJS1_ELb1ELb1EEEDpOT_, symObjAddr: 0x2524, symBinAddr: 0x100002D04, symSize: 0x30 }
  - { offset: 0x28FC0, size: 0x8, addend: 0x0, symName: __ZStltIiLm4EEbRKSt5arrayIT_XT0_EES4_, symObjAddr: 0x24BC, symBinAddr: 0x100002C9C, symSize: 0x68 }
  - { offset: 0x29012, size: 0x8, addend: 0x0, symName: __ZNSt13_Rb_tree_nodeISt4pairIKSt5arrayIiLm4EEiEE9_M_valptrEv, symObjAddr: 0x249C, symBinAddr: 0x100002C7C, symSize: 0x20 }
  - { offset: 0x2903C, size: 0x8, addend: 0x0, symName: __ZNKSt8_Rb_treeISt5arrayIiLm4EESt4pairIKS1_iESt10_Select1stIS4_ESt4lessIS1_ESaIS4_EE8key_compEv, symObjAddr: 0x2484, symBinAddr: 0x100002C64, symSize: 0x18 }
  - { offset: 0x29066, size: 0x8, addend: 0x0, symName: __ZNSt8_Rb_treeISt5arrayIiLm4EESt4pairIKS1_iESt10_Select1stIS4_ESt4lessIS1_ESaIS4_EE3endEv, symObjAddr: 0x2458, symBinAddr: 0x100002C38, symSize: 0x2C }
  - { offset: 0x29090, size: 0x8, addend: 0x0, symName: __ZNSt8_Rb_treeISt5arrayIiLm4EESt4pairIKS1_iESt10_Select1stIS4_ESt4lessIS1_ESaIS4_EE11lower_boundERS3_, symObjAddr: 0x2400, symBinAddr: 0x100002BE0, symSize: 0x58 }
  - { offset: 0x29113, size: 0x8, addend: 0x0, symName: __ZNSt13_Rb_tree_nodeISt4pairIKSt5arrayIiLm4EEiEE11_M_node_ptrEv, symObjAddr: 0x23EC, symBinAddr: 0x100002BCC, symSize: 0x14 }
  - { offset: 0x2913D, size: 0x8, addend: 0x0, symName: __ZNSt8_Rb_treeISt5arrayIiLm4EESt4pairIKS1_iESt10_Select1stIS4_ESt4lessIS1_ESaIS4_EE12_M_drop_nodeEPSt13_Rb_tree_nodeIS4_E, symObjAddr: 0x23B8, symBinAddr: 0x100002B98, symSize: 0x34 }
  - { offset: 0x29174, size: 0x8, addend: 0x0, symName: __ZNSt8_Rb_treeISt5arrayIiLm4EESt4pairIKS1_iESt10_Select1stIS4_ESt4lessIS1_ESaIS4_EE7_S_leftEPSt13_Rb_tree_nodeIS4_E, symObjAddr: 0x2380, symBinAddr: 0x100002B60, symSize: 0x38 }
  - { offset: 0x2919E, size: 0x8, addend: 0x0, symName: __ZNSt8_Rb_treeISt5arrayIiLm4EESt4pairIKS1_iESt10_Select1stIS4_ESt4lessIS1_ESaIS4_EE8_S_rightEPSt13_Rb_tree_nodeIS4_E, symObjAddr: 0x2348, symBinAddr: 0x100002B28, symSize: 0x38 }
  - { offset: 0x29214, size: 0x8, addend: 0x0, symName: __ZNKSt13_Rb_tree_nodeIiE9_M_valptrEv, symObjAddr: 0x2328, symBinAddr: 0x100002B08, symSize: 0x20 }
  - { offset: 0x2923E, size: 0x8, addend: 0x0, symName: __ZNKSt8_Rb_treeIiiSt9_IdentityIiESt4lessIiESaIiEE3endEv, symObjAddr: 0x22FC, symBinAddr: 0x100002ADC, symSize: 0x2C }
  - { offset: 0x29268, size: 0x8, addend: 0x0, symName: __ZNKSt8_Rb_treeIiiSt9_IdentityIiESt4lessIiESaIiEE5beginEv, symObjAddr: 0x22D4, symBinAddr: 0x100002AB4, symSize: 0x28 }
  - { offset: 0x29292, size: 0x8, addend: 0x0, symName: __ZNSt6vectorISt3setIiSt4lessIiESaIiEESaIS4_EE12emplace_backIJS4_EEERS4_DpOT_, symObjAddr: 0x21D0, symBinAddr: 0x1000029B0, symSize: 0x104 }
  - { offset: 0x293FB, size: 0x8, addend: 0x0, symName: __ZNKSt8_Rb_treeIiiSt9_IdentityIiESt4lessIiESaIiEE13_M_begin_nodeEv, symObjAddr: 0x2194, symBinAddr: 0x100002974, symSize: 0x3C }
  - { offset: 0x29436, size: 0x8, addend: 0x0, symName: __ZNSt8_Rb_treeIiiSt9_IdentityIiESt4lessIiESaIiEE8_M_eraseEPSt13_Rb_tree_nodeIiE, symObjAddr: 0x2130, symBinAddr: 0x100002910, symSize: 0x64 }
  - { offset: 0x294AF, size: 0x8, addend: 0x0, symName: __ZNSt15__new_allocatorISt13_Rb_tree_nodeIiEED2Ev, symObjAddr: 0x211C, symBinAddr: 0x1000028FC, symSize: 0x14 }
  - { offset: 0x294EF, size: 0x8, addend: 0x0, symName: __ZNSt20_Rb_tree_key_compareISt4lessIiEEC2Ev, symObjAddr: 0x2108, symBinAddr: 0x1000028E8, symSize: 0x14 }
  - { offset: 0x29573, size: 0x8, addend: 0x0, symName: __ZNSt6vectorIS_IiSaIiEESaIS1_EE14_M_move_assignEOS3_St17integral_constantIbLb1EE, symObjAddr: 0x2074, symBinAddr: 0x100002854, symSize: 0x94 }
  - { offset: 0x29679, size: 0x8, addend: 0x0, symName: __ZNSt12_Vector_baseISt6vectorIiSaIiEESaIS2_EE19_M_get_Tp_allocatorEv, symObjAddr: 0x2060, symBinAddr: 0x100002840, symSize: 0x14 }
  - { offset: 0x296A3, size: 0x8, addend: 0x0, symName: __ZNSt6vectorIS_IiSaIiEESaIS1_EE18_M_fill_initializeEmRKS1_, symObjAddr: 0x2008, symBinAddr: 0x1000027E8, symSize: 0x58 }
  - { offset: 0x29725, size: 0x8, addend: 0x0, symName: __ZNSt12_Vector_baseISt6vectorIiSaIiEESaIS2_EEC2EmRKS3_, symObjAddr: 0x1FB4, symBinAddr: 0x100002794, symSize: 0x54 }
  - { offset: 0x29759, size: 0x8, addend: 0x0, symName: __ZNSt6vectorIS_IiSaIiEESaIS1_EE17_S_check_init_lenEmRKS2_, symObjAddr: 0x1F30, symBinAddr: 0x100002710, symSize: 0x84 }
  - { offset: 0x29860, size: 0x8, addend: 0x0, symName: __ZNSt12_Vector_baseIiSaIiEE19_M_get_Tp_allocatorEv, symObjAddr: 0x1F1C, symBinAddr: 0x1000026FC, symSize: 0x14 }
  - { offset: 0x2988A, size: 0x8, addend: 0x0, symName: __ZNSt6vectorIiSaIiEE21_M_default_initializeEm, symObjAddr: 0x1ECC, symBinAddr: 0x1000026AC, symSize: 0x50 }
  - { offset: 0x298DF, size: 0x8, addend: 0x0, symName: __ZNSt12_Vector_baseIiSaIiEED2Ev, symObjAddr: 0x1E7C, symBinAddr: 0x10000265C, symSize: 0x50 }
  - { offset: 0x2993B, size: 0x8, addend: 0x0, symName: __ZNSt12_Vector_baseIiSaIiEEC2EmRKS0_, symObjAddr: 0x1E28, symBinAddr: 0x100002608, symSize: 0x54 }
  - { offset: 0x29990, size: 0x8, addend: 0x0, symName: __ZNSt12_Vector_baseIiSaIiEE12_Vector_implD1Ev, symObjAddr: 0x1DFC, symBinAddr: 0x1000025DC, symSize: 0x2C }
  - { offset: 0x299D5, size: 0x8, addend: 0x0, symName: __ZNSt6vectorIiSaIiEE17_S_check_init_lenEmRKS0_, symObjAddr: 0x1D78, symBinAddr: 0x100002558, symSize: 0x84 }
  - { offset: 0x29AA5, size: 0x8, addend: 0x0, symName: __ZNSt15__new_allocatorIiED2Ev, symObjAddr: 0x1D64, symBinAddr: 0x100002544, symSize: 0x14 }
  - { offset: 0x29B29, size: 0x8, addend: 0x0, symName: __ZNSt4pairISt23_Rb_tree_const_iteratorIiEbEC1IRSt17_Rb_tree_iteratorIiERbLb1EEEOT_OT0_, symObjAddr: 0x1D18, symBinAddr: 0x1000024F8, symSize: 0x4C }
  - { offset: 0x29BBB, size: 0x8, addend: 0x0, symName: __ZNSt8_Rb_treeIiiSt9_IdentityIiESt4lessIiESaIiEE16_M_insert_uniqueIRKiEESt4pairISt17_Rb_tree_iteratorIiEbEOT_, symObjAddr: 0x1C54, symBinAddr: 0x100002434, symSize: 0xC4 }
  - { offset: 0x29C96, size: 0x8, addend: 0x0, symName: __ZNSt6vectorISt3setIiSt4lessIiESaIiEESaIS4_EE3endEv, symObjAddr: 0x1C24, symBinAddr: 0x100002404, symSize: 0x30 }
  - { offset: 0x29CEA, size: 0x8, addend: 0x0, symName: __ZNKSt6vectorISt3setIiSt4lessIiESaIiEESaIS4_EE5emptyEv, symObjAddr: 0x1BCC, symBinAddr: 0x1000023AC, symSize: 0x58 }
  - { offset: 0x29D83, size: 0x8, addend: 0x0, symName: __ZNKSt6vectorIiSaIiEE4sizeEv, symObjAddr: 0x1B8C, symBinAddr: 0x10000236C, symSize: 0x40 }
  - { offset: 0x29DBE, size: 0x8, addend: 0x0, symName: __ZNSt8_Rb_treeISt5arrayIiLm4EESt4pairIKS1_iESt10_Select1stIS4_ESt4lessIS1_ESaIS4_EE22_M_emplace_hint_uniqueIJRKSt21piecewise_construct_tSt5tupleIJOS1_EESF_IJEEEEESt17_Rb_tree_iteratorIS4_ESt23_Rb_tree_const_iteratorIS4_EDpOT_, symObjAddr: 0x1AB4, symBinAddr: 0x100002294, symSize: 0xD8 }
  - { offset: 0x29EEF, size: 0x8, addend: 0x0, symName: __ZNSt23_Rb_tree_const_iteratorISt4pairIKSt5arrayIiLm4EEiEEC1ERKSt17_Rb_tree_iteratorIS4_E, symObjAddr: 0x1A8C, symBinAddr: 0x10000226C, symSize: 0x28 }
  - { offset: 0x29F1A, size: 0x8, addend: 0x0, symName: __ZSt16forward_as_tupleIJSt5arrayIiLm4EEEESt5tupleIJDpOT_EES5_, symObjAddr: 0x1A50, symBinAddr: 0x100002230, symSize: 0x3C }
  - { offset: 0x29F9F, size: 0x8, addend: 0x0, symName: __ZNKSt4lessISt5arrayIiLm4EEEclERKS1_S4_, symObjAddr: 0x1A28, symBinAddr: 0x100002208, symSize: 0x28 }
  - { offset: 0x29FEB, size: 0x8, addend: 0x0, symName: __ZNKSt17_Rb_tree_iteratorISt4pairIKSt5arrayIiLm4EEiEEdeEv, symObjAddr: 0x1A08, symBinAddr: 0x1000021E8, symSize: 0x20 }
  - { offset: 0x2A015, size: 0x8, addend: 0x0, symName: __ZNKSt3mapISt5arrayIiLm4EEiSt4lessIS1_ESaISt4pairIKS1_iEEE8key_compEv, symObjAddr: 0x19DC, symBinAddr: 0x1000021BC, symSize: 0x2C }
  - { offset: 0x2A041, size: 0x8, addend: 0x0, symName: __ZSteqRKSt17_Rb_tree_iteratorISt4pairIKSt5arrayIiLm4EEiEES7_, symObjAddr: 0x19AC, symBinAddr: 0x10000218C, symSize: 0x30 }
  - { offset: 0x2A080, size: 0x8, addend: 0x0, symName: __ZNSt3mapISt5arrayIiLm4EEiSt4lessIS1_ESaISt4pairIKS1_iEEE3endEv, symObjAddr: 0x1990, symBinAddr: 0x100002170, symSize: 0x1C }
  - { offset: 0x2A0AA, size: 0x8, addend: 0x0, symName: __ZNSt3mapISt5arrayIiLm4EEiSt4lessIS1_ESaISt4pairIKS1_iEEE11lower_boundERS5_, symObjAddr: 0x196C, symBinAddr: 0x10000214C, symSize: 0x24 }
  - { offset: 0x2A0E5, size: 0x8, addend: 0x0, symName: __ZNSt12_Vector_baseISt3setIiSt4lessIiESaIiEESaIS4_EE13_M_deallocateEPS4_m, symObjAddr: 0x1914, symBinAddr: 0x1000020F4, symSize: 0x58 }
  - { offset: 0x2A181, size: 0x8, addend: 0x0, symName: __ZNSt15__new_allocatorISt3setIiSt4lessIiESaIiEEED2Ev, symObjAddr: 0x1900, symBinAddr: 0x1000020E0, symSize: 0x14 }
  - { offset: 0x2A1C1, size: 0x8, addend: 0x0, symName: __ZNSt12_Vector_baseISt3setIiSt4lessIiESaIiEESaIS4_EE17_Vector_impl_dataC2Ev, symObjAddr: 0x18D4, symBinAddr: 0x1000020B4, symSize: 0x2C }
  - { offset: 0x2A1FD, size: 0x8, addend: 0x0, symName: __ZNKSt8_Rb_treeISt5arrayIiLm4EESt4pairIKS1_iESt10_Select1stIS4_ESt4lessIS1_ESaIS4_EE13_M_begin_nodeEv, symObjAddr: 0x1898, symBinAddr: 0x100002078, symSize: 0x3C }
  - { offset: 0x2A238, size: 0x8, addend: 0x0, symName: __ZNSt8_Rb_treeISt5arrayIiLm4EESt4pairIKS1_iESt10_Select1stIS4_ESt4lessIS1_ESaIS4_EE8_M_eraseEPSt13_Rb_tree_nodeIS4_E, symObjAddr: 0x1834, symBinAddr: 0x100002014, symSize: 0x64 }
  - { offset: 0x2A2B1, size: 0x8, addend: 0x0, symName: __ZNSt15__new_allocatorISt13_Rb_tree_nodeISt4pairIKSt5arrayIiLm4EEiEEED2Ev, symObjAddr: 0x1820, symBinAddr: 0x100002000, symSize: 0x14 }
  - { offset: 0x2A2F1, size: 0x8, addend: 0x0, symName: __ZNSt20_Rb_tree_key_compareISt4lessISt5arrayIiLm4EEEEC2Ev, symObjAddr: 0x180C, symBinAddr: 0x100001FEC, symSize: 0x14 }
  - { offset: 0x2A32D, size: 0x8, addend: 0x0, symName: __ZNSt12_Vector_baseISt6vectorIiSaIiEESaIS2_EE13_M_deallocateEPS2_m, symObjAddr: 0x17B4, symBinAddr: 0x100001F94, symSize: 0x58 }
  - { offset: 0x2A3C9, size: 0x8, addend: 0x0, symName: __ZNSt15__new_allocatorISt6vectorIiSaIiEEED2Ev, symObjAddr: 0x17A0, symBinAddr: 0x100001F80, symSize: 0x14 }
  - { offset: 0x2A409, size: 0x8, addend: 0x0, symName: __ZNSt12_Vector_baseISt6vectorIiSaIiEESaIS2_EE17_Vector_impl_dataC1Ev, symObjAddr: 0x1774, symBinAddr: 0x100001F54, symSize: 0x2C }
  - { offset: 0x2A433, size: 0x8, addend: 0x0, symName: __ZNSt12_Vector_baseISt6vectorIiSaIiEESaIS2_EE17_Vector_impl_dataC2Ev, symObjAddr: 0x1748, symBinAddr: 0x100001F28, symSize: 0x2C }
  - { offset: 0x2A479, size: 0x8, addend: 0x0, symName: __ZSt3minIiERKT_S2_S2_, symObjAddr: 0x1710, symBinAddr: 0x100001EF0, symSize: 0x38 }
  - { offset: 0x2A4BF, size: 0x8, addend: 0x0, symName: __ZNKSt23_Rb_tree_const_iteratorIiEdeEv, symObjAddr: 0x16F0, symBinAddr: 0x100001ED0, symSize: 0x20 }
  - { offset: 0x2A4E9, size: 0x8, addend: 0x0, symName: __ZNSt23_Rb_tree_const_iteratorIiEppEv, symObjAddr: 0x16C0, symBinAddr: 0x100001EA0, symSize: 0x30 }
  - { offset: 0x2A515, size: 0x8, addend: 0x0, symName: __ZStneRKSt23_Rb_tree_const_iteratorIiES2_, symObjAddr: 0x1690, symBinAddr: 0x100001E70, symSize: 0x30 }
  - { offset: 0x2A554, size: 0x8, addend: 0x0, symName: __ZNKSt3setIiSt4lessIiESaIiEE3endEv, symObjAddr: 0x1674, symBinAddr: 0x100001E54, symSize: 0x1C }
  - { offset: 0x2A57E, size: 0x8, addend: 0x0, symName: __ZNKSt3setIiSt4lessIiESaIiEE5beginEv, symObjAddr: 0x1658, symBinAddr: 0x100001E38, symSize: 0x1C }
  - { offset: 0x2A5A8, size: 0x8, addend: 0x0, symName: __ZNSt6vectorISt3setIiSt4lessIiESaIiEESaIS4_EEixEm, symObjAddr: 0x15C8, symBinAddr: 0x100001DA8, symSize: 0x90 }
  - { offset: 0x2A5FA, size: 0x8, addend: 0x0, symName: __ZSt3maxIiERKT_S2_S2_, symObjAddr: 0x1590, symBinAddr: 0x100001D70, symSize: 0x38 }
  - { offset: 0x2A642, size: 0x8, addend: 0x0, symName: __ZNSt6vectorISt3setIiSt4lessIiESaIiEESaIS4_EE9push_backEOS4_, symObjAddr: 0x155C, symBinAddr: 0x100001D3C, symSize: 0x34 }
  - { offset: 0x2A6BB, size: 0x8, addend: 0x0, symName: __ZNSt8_Rb_treeIiiSt9_IdentityIiESt4lessIiESaIiEED1Ev, symObjAddr: 0x1528, symBinAddr: 0x100001D08, symSize: 0x34 }
  - { offset: 0x2A711, size: 0x8, addend: 0x0, symName: __ZNSt8_Rb_treeIiiSt9_IdentityIiESt4lessIiESaIiEE13_Rb_tree_implIS3_Lb1EEC1Ev, symObjAddr: 0x14E4, symBinAddr: 0x100001CC4, symSize: 0x44 }
  - { offset: 0x2A794, size: 0x8, addend: 0x0, symName: __ZNSt6vectorIiSaIiEE3endEv, symObjAddr: 0x14B4, symBinAddr: 0x100001C94, symSize: 0x30 }
  - { offset: 0x2A7E8, size: 0x8, addend: 0x0, symName: __ZNSt6vectorIiSaIiEE5beginEv, symObjAddr: 0x1488, symBinAddr: 0x100001C68, symSize: 0x2C }
  - { offset: 0x2A852, size: 0x8, addend: 0x0, symName: __ZNSt6vectorIS_IiSaIiEESaIS1_EE3endEv, symObjAddr: 0x1458, symBinAddr: 0x100001C38, symSize: 0x30 }
  - { offset: 0x2A8A6, size: 0x8, addend: 0x0, symName: __ZNSt6vectorIS_IiSaIiEESaIS1_EE5beginEv, symObjAddr: 0x142C, symBinAddr: 0x100001C0C, symSize: 0x2C }
  - { offset: 0x2A8FA, size: 0x8, addend: 0x0, symName: __ZNSt6vectorIS_IiSaIiEESaIS1_EEaSEOS3_, symObjAddr: 0x13F0, symBinAddr: 0x100001BD0, symSize: 0x3C }
  - { offset: 0x2A984, size: 0x8, addend: 0x0, symName: __ZNSt6vectorIS_IiSaIiEESaIS1_EED1Ev, symObjAddr: 0x1394, symBinAddr: 0x100001B74, symSize: 0x5C }
  - { offset: 0x2AA24, size: 0x8, addend: 0x0, symName: __ZNSt6vectorIS_IiSaIiEESaIS1_EEC1EmRKS1_RKS2_, symObjAddr: 0x1324, symBinAddr: 0x100001B04, symSize: 0x70 }
  - { offset: 0x2AA95, size: 0x8, addend: 0x0, symName: __ZNSt6vectorIiSaIiEED1Ev, symObjAddr: 0x12C8, symBinAddr: 0x100001AA8, symSize: 0x5C }
  - { offset: 0x2AB27, size: 0x8, addend: 0x0, symName: __ZNSt6vectorIiSaIiEEC1EmRKS0_, symObjAddr: 0x1260, symBinAddr: 0x100001A40, symSize: 0x68 }
  - { offset: 0x2AB8B, size: 0x8, addend: 0x0, symName: __ZNSt3setIiSt4lessIiESaIiEE6insertERKi, symObjAddr: 0x1220, symBinAddr: 0x100001A00, symSize: 0x40 }
  - { offset: 0x2ABD7, size: 0x8, addend: 0x0, symName: __ZNSt6vectorISt3setIiSt4lessIiESaIiEESaIS4_EE4backEv, symObjAddr: 0x1178, symBinAddr: 0x100001958, symSize: 0xA8 }
  - { offset: 0x2AC8E, size: 0x8, addend: 0x0, symName: __ZNSt6vectorIiSaIiEEixEm, symObjAddr: 0x10F4, symBinAddr: 0x1000018D4, symSize: 0x84 }
  - { offset: 0x2ACE4, size: 0x8, addend: 0x0, symName: __ZNSt6vectorIS_IiSaIiEESaIS1_EEixEm, symObjAddr: 0x1064, symBinAddr: 0x100001844, symSize: 0x90 }
  - { offset: 0x2AD3A, size: 0x8, addend: 0x0, symName: __ZNKSt6vectorIS_IiSaIiEESaIS1_EE4sizeEv, symObjAddr: 0x1018, symBinAddr: 0x1000017F8, symSize: 0x4C }
  - { offset: 0x2AD75, size: 0x8, addend: 0x0, symName: __ZNKSt6vectorISt3setIiSt4lessIiESaIiEESaIS4_EE4sizeEv, symObjAddr: 0xFCC, symBinAddr: 0x1000017AC, symSize: 0x4C }
  - { offset: 0x2ADB0, size: 0x8, addend: 0x0, symName: __ZNSt3mapISt5arrayIiLm4EEiSt4lessIS1_ESaISt4pairIKS1_iEEEixEOS1_, symObjAddr: 0xED4, symBinAddr: 0x1000016B4, symSize: 0xF8 }
  - { offset: 0x2AE3C, size: 0x8, addend: 0x0, symName: __ZNSt12_Vector_baseISt3setIiSt4lessIiESaIiEESaIS4_EED2Ev, symObjAddr: 0xE78, symBinAddr: 0x100001658, symSize: 0x5C }
  - { offset: 0x2AE92, size: 0x8, addend: 0x0, symName: __ZNSt12_Vector_baseISt3setIiSt4lessIiESaIiEESaIS4_EE12_Vector_implC1Ev, symObjAddr: 0xE40, symBinAddr: 0x100001620, symSize: 0x38 }
  - { offset: 0x2AF18, size: 0x8, addend: 0x0, symName: __ZNSt8_Rb_treeISt5arrayIiLm4EESt4pairIKS1_iESt10_Select1stIS4_ESt4lessIS1_ESaIS4_EED1Ev, symObjAddr: 0xE0C, symBinAddr: 0x1000015EC, symSize: 0x34 }
  - { offset: 0x2AF6E, size: 0x8, addend: 0x0, symName: __ZNSt8_Rb_treeISt5arrayIiLm4EESt4pairIKS1_iESt10_Select1stIS4_ESt4lessIS1_ESaIS4_EE13_Rb_tree_implIS8_Lb1EEC1Ev, symObjAddr: 0xDC8, symBinAddr: 0x1000015A8, symSize: 0x44 }
  - { offset: 0x2AFF5, size: 0x8, addend: 0x0, symName: __ZNSt12_Vector_baseISt6vectorIiSaIiEESaIS2_EED2Ev, symObjAddr: 0xD6C, symBinAddr: 0x10000154C, symSize: 0x5C }
  - { offset: 0x2B04B, size: 0x8, addend: 0x0, symName: __ZNSt12_Vector_baseISt6vectorIiSaIiEESaIS2_EE12_Vector_implC1Ev, symObjAddr: 0xD34, symBinAddr: 0x100001514, symSize: 0x38 }
  - { offset: 0x2B0B3, size: 0x8, addend: 0x0, symName: __ZSt3maxImERKT_S2_S2_, symObjAddr: 0xCFC, symBinAddr: 0x1000014DC, symSize: 0x38 }
  - { offset: 0x2B0FE, size: 0x8, addend: 0x0, symName: _main, symObjAddr: 0x6B4, symBinAddr: 0x100000E94, symSize: 0x648 }
  - { offset: 0x2B54B, size: 0x8, addend: 0x0, symName: __ZNSt3setIiSt4lessIiESaIiEED1Ev, symObjAddr: 0x694, symBinAddr: 0x100000E74, symSize: 0x20 }
  - { offset: 0x2B58B, size: 0x8, addend: 0x0, symName: __ZNSt3setIiSt4lessIiESaIiEEC1Ev, symObjAddr: 0x674, symBinAddr: 0x100000E54, symSize: 0x20 }
  - { offset: 0x2B5CB, size: 0x8, addend: 0x0, symName: __ZNSt8_Rb_treeIiiSt9_IdentityIiESt4lessIiESaIiEEC1Ev, symObjAddr: 0x654, symBinAddr: 0x100000E34, symSize: 0x20 }
  - { offset: 0x2B60F, size: 0x8, addend: 0x0, symName: __ZNSt8_Rb_treeIiiSt9_IdentityIiESt4lessIiESaIiEE13_Rb_tree_implIS3_Lb1EED1Ev, symObjAddr: 0x628, symBinAddr: 0x100000E08, symSize: 0x2C }
  - { offset: 0x2B72C, size: 0x8, addend: 0x0, symName: __Z3dfsiiii, symObjAddr: 0x310, symBinAddr: 0x100000AF0, symSize: 0x318 }
  - { offset: 0x2B81F, size: 0x8, addend: 0x0, symName: __ZNSt6vectorISt3setIiSt4lessIiESaIiEESaIS4_EEC1Ev, symObjAddr: 0x2F0, symBinAddr: 0x100000AD0, symSize: 0x20 }
  - { offset: 0x2B85F, size: 0x8, addend: 0x0, symName: __ZNSt12_Vector_baseISt3setIiSt4lessIiESaIiEESaIS4_EEC2Ev, symObjAddr: 0x2D0, symBinAddr: 0x100000AB0, symSize: 0x20 }
  - { offset: 0x2B8A2, size: 0x8, addend: 0x0, symName: __ZNSt12_Vector_baseISt3setIiSt4lessIiESaIiEESaIS4_EE12_Vector_implD1Ev, symObjAddr: 0x2A4, symBinAddr: 0x100000A84, symSize: 0x2C }
  - { offset: 0x2B905, size: 0x8, addend: 0x0, symName: __ZNSt3mapISt5arrayIiLm4EEiSt4lessIS1_ESaISt4pairIKS1_iEEEC1Ev, symObjAddr: 0x284, symBinAddr: 0x100000A64, symSize: 0x20 }
  - { offset: 0x2B945, size: 0x8, addend: 0x0, symName: __ZNSt8_Rb_treeISt5arrayIiLm4EESt4pairIKS1_iESt10_Select1stIS4_ESt4lessIS1_ESaIS4_EEC1Ev, symObjAddr: 0x264, symBinAddr: 0x100000A44, symSize: 0x20 }
  - { offset: 0x2B989, size: 0x8, addend: 0x0, symName: __ZNSt8_Rb_treeISt5arrayIiLm4EESt4pairIKS1_iESt10_Select1stIS4_ESt4lessIS1_ESaIS4_EE13_Rb_tree_implIS8_Lb1EED1Ev, symObjAddr: 0x238, symBinAddr: 0x100000A18, symSize: 0x2C }
  - { offset: 0x2B9ED, size: 0x8, addend: 0x0, symName: __ZNSt6vectorIS_IiSaIiEESaIS1_EEC1Ev, symObjAddr: 0x218, symBinAddr: 0x1000009F8, symSize: 0x20 }
  - { offset: 0x2BA2D, size: 0x8, addend: 0x0, symName: __ZNSt12_Vector_baseISt6vectorIiSaIiEESaIS2_EEC2Ev, symObjAddr: 0x1F8, symBinAddr: 0x1000009D8, symSize: 0x20 }
  - { offset: 0x2BA70, size: 0x8, addend: 0x0, symName: __ZNSt12_Vector_baseISt6vectorIiSaIiEESaIS2_EE12_Vector_implD1Ev, symObjAddr: 0x1CC, symBinAddr: 0x1000009AC, symSize: 0x2C }
  - { offset: 0x2BAB9, size: 0x8, addend: 0x0, symName: __ZNSt15_Rb_tree_header8_M_resetEv, symObjAddr: 0x190, symBinAddr: 0x100000970, symSize: 0x3C }
  - { offset: 0x2BAE3, size: 0x8, addend: 0x0, symName: __ZNSt15_Rb_tree_header12_M_move_dataERS_, symObjAddr: 0x10C, symBinAddr: 0x1000008EC, symSize: 0x84 }
  - { offset: 0x2BB44, size: 0x8, addend: 0x0, symName: __ZNSt15_Rb_tree_headerC2EOS_, symObjAddr: 0xC0, symBinAddr: 0x1000008A0, symSize: 0x4C }
  - { offset: 0x2BB8D, size: 0x8, addend: 0x0, symName: __ZNSt15_Rb_tree_headerC2Ev, symObjAddr: 0x98, symBinAddr: 0x100000878, symSize: 0x28 }
  - { offset: 0x2BBB3, size: 0x8, addend: 0x0, symName: __ZNKSt18_Rb_tree_node_base11_M_base_ptrEv, symObjAddr: 0x84, symBinAddr: 0x100000864, symSize: 0x14 }
  - { offset: 0x2BBD9, size: 0x8, addend: 0x0, symName: __ZSt3minImERKT_S2_S2_, symObjAddr: 0x4C, symBinAddr: 0x10000082C, symSize: 0x38 }
  - { offset: 0x2BC22, size: 0x8, addend: 0x0, symName: __ZdlPvS_, symObjAddr: 0x34, symBinAddr: 0x100000814, symSize: 0x18 }
  - { offset: 0x2BC58, size: 0x8, addend: 0x0, symName: __ZnwmPv, symObjAddr: 0x1C, symBinAddr: 0x1000007FC, symSize: 0x18 }
  - { offset: 0x2BC8A, size: 0x8, addend: 0x0, symName: __ZSt17__size_to_integerm, symObjAddr: 0x8, symBinAddr: 0x1000007E8, symSize: 0x14 }
  - { offset: 0x2BCB4, size: 0x8, addend: 0x0, symName: __ZN9__gnu_cxx5__ops16__iter_less_iterEv, symObjAddr: 0x0, symBinAddr: 0x1000007E0, symSize: 0x8 }
...
