---
triple:          'arm64-apple-darwin'
binary-path:     '/Users/shayan/Documents/Shayan-Documents/My-Programming/C++/USACO & CP/USACO & CP/USACO & CP/USACO Contests/Silver/2025-2026/Contest 2/cowlibi'
relocations:
  - { offset: 0x1CEFD, size: 0x8, addend: 0x0, symName: __ZStL8__ioinit, symObjAddr: 0x89EAB, symBinAddr: 0x100008000, symSize: 0x0 }
  - { offset: 0x1D2D4, size: 0x8, addend: 0x0, symName: _C, symObjAddr: 0x89EAC, symBinAddr: 0x100008001, symSize: 0x0 }
  - { offset: 0x1D727, size: 0x8, addend: 0x0, symName: __GLOBAL__sub_I_cowlibi.cpp, symObjAddr: 0x10BC, symBinAddr: 0x1000017C8, symSize: 0x14 }
  - { offset: 0x1D73F, size: 0x8, addend: 0x0, symName: __Z41__static_initialization_and_destruction_0v, symObjAddr: 0x1080, symBinAddr: 0x10000178C, symSize: 0x3C }
  - { offset: 0x1D797, size: 0x8, addend: 0x0, symName: __ZNSt15__new_allocatorIPNSt8__detail15_Hash_node_baseEE10deallocateEPS2_m, symObjAddr: 0x101C, symBinAddr: 0x10000175C, symSize: 0x30 }
  - { offset: 0x1D7FB, size: 0x8, addend: 0x0, symName: __ZNSt15__new_allocatorIPNSt8__detail15_Hash_node_baseEED2Ev, symObjAddr: 0x1008, symBinAddr: 0x100001748, symSize: 0x14 }
  - { offset: 0x1D855, size: 0x8, addend: 0x0, symName: __ZNSt15__new_allocatorINSt8__detail10_Hash_nodeISt4pairIKNSt7__cxx1112basic_stringIcSt11char_traitsIcESaIcEEESt6vectorIiSaIiEEELb1EEEE10deallocateEPSE_m, symObjAddr: 0xFCC, symBinAddr: 0x10000170C, symSize: 0x3C }
  - { offset: 0x1D8C1, size: 0x8, addend: 0x0, symName: __ZN9__gnu_cxx16__aligned_bufferISt4pairIKNSt7__cxx1112basic_stringIcSt11char_traitsIcESaIcEEESt6vectorIiSaIiEEEE7_M_addrEv, symObjAddr: 0xFB8, symBinAddr: 0x1000016F8, symSize: 0x14 }
  - { offset: 0x1D987, size: 0x8, addend: 0x0, symName: __ZNSt19__ptr_traits_ptr_toIPPNSt8__detail15_Hash_node_baseES2_Lb0EE10pointer_toERS2_, symObjAddr: 0xF90, symBinAddr: 0x1000016D0, symSize: 0x28 }
  - { offset: 0x1DA28, size: 0x8, addend: 0x0, symName: __ZNSt19__ptr_traits_ptr_toIPNSt8__detail10_Hash_nodeISt4pairIKNSt7__cxx1112basic_stringIcSt11char_traitsIcESaIcEEESt6vectorIiSaIiEEELb1EEESE_Lb0EE10pointer_toERSE_, symObjAddr: 0xF68, symBinAddr: 0x1000016A8, symSize: 0x28 }
  - { offset: 0x1DAE5, size: 0x8, addend: 0x0, symName: __ZNSt4pairIKNSt7__cxx1112basic_stringIcSt11char_traitsIcESaIcEEESt6vectorIiSaIiEEED1Ev, symObjAddr: 0xF3C, symBinAddr: 0x10000167C, symSize: 0x2C }
  - { offset: 0x1DB0B, size: 0x8, addend: 0x0, symName: __ZN9__gnu_cxx16__aligned_bufferISt4pairIKNSt7__cxx1112basic_stringIcSt11char_traitsIcESaIcEEESt6vectorIiSaIiEEEE6_M_ptrEv, symObjAddr: 0xF20, symBinAddr: 0x100001660, symSize: 0x1C }
  - { offset: 0x1DB87, size: 0x8, addend: 0x0, symName: __ZNSt15__new_allocatorIiE10deallocateEPim, symObjAddr: 0xEF0, symBinAddr: 0x100001630, symSize: 0x30 }
  - { offset: 0x1DBE7, size: 0x8, addend: 0x0, symName: __ZNSt8__detail16_Hashtable_allocISaINS_10_Hash_nodeISt4pairIKNSt7__cxx1112basic_stringIcSt11char_traitsIcESaIcEEESt6vectorIiSaIiEEELb1EEEEE21_M_deallocate_bucketsEPPNS_15_Hash_node_baseEm, symObjAddr: 0xE78, symBinAddr: 0x1000015B8, symSize: 0x78 }
  - { offset: 0x1DCF7, size: 0x8, addend: 0x0, symName: __ZNKSt10_HashtableINSt7__cxx1112basic_stringIcSt11char_traitsIcESaIcEEESt4pairIKS5_St6vectorIiSaIiEEESaISB_ENSt8__detail10_Select1stESt8equal_toIS5_ESt4hashIS5_ENSD_18_Mod_range_hashingENSD_20_Default_ranged_hashENSD_20_Prime_rehash_policyENSD_17_Hashtable_traitsILb1ELb0ELb1EEEE21_M_uses_single_bucketEPPNSD_15_Hash_node_baseE, symObjAddr: 0xE3C, symBinAddr: 0x10000157C, symSize: 0x3C }
  - { offset: 0x1DD32, size: 0x8, addend: 0x0, symName: __ZNSt8__detail16_Hashtable_allocISaINS_10_Hash_nodeISt4pairIKNSt7__cxx1112basic_stringIcSt11char_traitsIcESaIcEEESt6vectorIiSaIiEEELb1EEEEE22_M_deallocate_node_ptrEPSE_, symObjAddr: 0xDE4, symBinAddr: 0x100001524, symSize: 0x58 }
  - { offset: 0x1DDF7, size: 0x8, addend: 0x0, symName: __ZNSt8__detail16_Hashtable_allocISaINS_10_Hash_nodeISt4pairIKNSt7__cxx1112basic_stringIcSt11char_traitsIcESaIcEEESt6vectorIiSaIiEEELb1EEEEE17_M_node_allocatorEv, symObjAddr: 0xDD0, symBinAddr: 0x100001510, symSize: 0x14 }
  - { offset: 0x1DE21, size: 0x8, addend: 0x0, symName: __ZNSt15__new_allocatorIcE10deallocateEPcm, symObjAddr: 0xDA8, symBinAddr: 0x1000014E8, symSize: 0x28 }
  - { offset: 0x1DE7D, size: 0x8, addend: 0x0, symName: __ZNSt19__ptr_traits_ptr_toIPKcS0_Lb0EE10pointer_toERS0_, symObjAddr: 0xD80, symBinAddr: 0x1000014C0, symSize: 0x28 }
  - { offset: 0x1DF25, size: 0x8, addend: 0x0, symName: __ZSt8_DestroyIPiEvT_S1_, symObjAddr: 0xD68, symBinAddr: 0x1000014A8, symSize: 0x18 }
  - { offset: 0x1DF9D, size: 0x8, addend: 0x0, symName: __ZN9__gnu_cxx5__ops16_Iter_equals_valIKcEclINS_17__normal_iteratorIPcNSt7__cxx1112basic_stringIcSt11char_traitsIcESaIcEEEEEEEbT_, symObjAddr: 0xD34, symBinAddr: 0x100001474, symSize: 0x34 }
  - { offset: 0x1E092, size: 0x8, addend: 0x0, symName: __ZN9__gnu_cxx5__ops16_Iter_equals_valIKcEC1ERS2_, symObjAddr: 0xD10, symBinAddr: 0x100001450, symSize: 0x24 }
  - { offset: 0x1E0C1, size: 0x8, addend: 0x0, symName: __ZNSt10_HashtableINSt7__cxx1112basic_stringIcSt11char_traitsIcESaIcEEESt4pairIKS5_St6vectorIiSaIiEEESaISB_ENSt8__detail10_Select1stESt8equal_toIS5_ESt4hashIS5_ENSD_18_Mod_range_hashingENSD_20_Default_ranged_hashENSD_20_Prime_rehash_policyENSD_17_Hashtable_traitsILb1ELb0ELb1EEEE21_M_deallocate_bucketsEPPNSD_15_Hash_node_baseEm, symObjAddr: 0xCC4, symBinAddr: 0x100001404, symSize: 0x4C }
  - { offset: 0x1E10D, size: 0x8, addend: 0x0, symName: __ZNSt8__detail16_Hashtable_allocISaINS_10_Hash_nodeISt4pairIKNSt7__cxx1112basic_stringIcSt11char_traitsIcESaIcEEESt6vectorIiSaIiEEELb1EEEEE18_M_deallocate_nodeEPSE_, symObjAddr: 0xC48, symBinAddr: 0x100001388, symSize: 0x7C }
  - { offset: 0x1E1C6, size: 0x8, addend: 0x0, symName: __ZNKSt8__detail10_Hash_nodeISt4pairIKNSt7__cxx1112basic_stringIcSt11char_traitsIcESaIcEEESt6vectorIiSaIiEEELb1EE7_M_nextEv, symObjAddr: 0xC30, symBinAddr: 0x100001370, symSize: 0x18 }
  - { offset: 0x1E222, size: 0x8, addend: 0x0, symName: __ZNKSt7__cxx1112basic_stringIcSt11char_traitsIcESaIcEE8max_sizeEv, symObjAddr: 0xBD4, symBinAddr: 0x100001314, symSize: 0x5C }
  - { offset: 0x1E2D9, size: 0x8, addend: 0x0, symName: __ZNKSt7__cxx1112basic_stringIcSt11char_traitsIcESaIcEE13_M_local_dataEv, symObjAddr: 0xBB4, symBinAddr: 0x1000012F4, symSize: 0x20 }
  - { offset: 0x1E322, size: 0x8, addend: 0x0, symName: __ZNSt19__ptr_traits_ptr_toIPccLb0EE10pointer_toERc, symObjAddr: 0xB8C, symBinAddr: 0x1000012CC, symSize: 0x28 }
  - { offset: 0x1E3D0, size: 0x8, addend: 0x0, symName: __ZNSt12_Vector_baseIiSaIiEE19_M_get_Tp_allocatorEv, symObjAddr: 0xB78, symBinAddr: 0x1000012B8, symSize: 0x14 }
  - { offset: 0x1E3FA, size: 0x8, addend: 0x0, symName: __ZNSt12_Vector_baseIiSaIiEE13_M_deallocateEPim, symObjAddr: 0xB20, symBinAddr: 0x100001260, symSize: 0x58 }
  - { offset: 0x1E496, size: 0x8, addend: 0x0, symName: __ZNSt15__new_allocatorIiED2Ev, symObjAddr: 0xB0C, symBinAddr: 0x10000124C, symSize: 0x14 }
  - { offset: 0x1E4B8, size: 0x8, addend: 0x0, symName: __ZSt10__count_ifIN9__gnu_cxx17__normal_iteratorIPcNSt7__cxx1112basic_stringIcSt11char_traitsIcESaIcEEEEENS0_5__ops16_Iter_equals_valIKcEEENSt15iterator_traitsIT_E15difference_typeESF_SF_T0_, symObjAddr: 0xA78, symBinAddr: 0x1000011B8, symSize: 0x94 }
  - { offset: 0x1E5B7, size: 0x8, addend: 0x0, symName: __ZN9__gnu_cxx5__ops17__iter_equals_valIKcEENS0_16_Iter_equals_valIT_EERS4_, symObjAddr: 0xA54, symBinAddr: 0x100001194, symSize: 0x24 }
  - { offset: 0x1E612, size: 0x8, addend: 0x0, symName: __ZNSt10_HashtableINSt7__cxx1112basic_stringIcSt11char_traitsIcESaIcEEESt4pairIKS5_St6vectorIiSaIiEEESaISB_ENSt8__detail10_Select1stESt8equal_toIS5_ESt4hashIS5_ENSD_18_Mod_range_hashingENSD_20_Default_ranged_hashENSD_20_Prime_rehash_policyENSD_17_Hashtable_traitsILb1ELb0ELb1EEEE21_M_deallocate_bucketsEv, symObjAddr: 0xA20, symBinAddr: 0x100001160, symSize: 0x34 }
  - { offset: 0x1E63C, size: 0x8, addend: 0x0, symName: __ZNSt8__detail16_Hashtable_allocISaINS_10_Hash_nodeISt4pairIKNSt7__cxx1112basic_stringIcSt11char_traitsIcESaIcEEESt6vectorIiSaIiEEELb1EEEEE19_M_deallocate_nodesEPSE_, symObjAddr: 0x9D0, symBinAddr: 0x100001110, symSize: 0x50 }
  - { offset: 0x1E69B, size: 0x8, addend: 0x0, symName: __ZNKSt10_HashtableINSt7__cxx1112basic_stringIcSt11char_traitsIcESaIcEEESt4pairIKS5_St6vectorIiSaIiEEESaISB_ENSt8__detail10_Select1stESt8equal_toIS5_ESt4hashIS5_ENSD_18_Mod_range_hashingENSD_20_Default_ranged_hashENSD_20_Prime_rehash_policyENSD_17_Hashtable_traitsILb1ELb0ELb1EEEE8_M_beginEv, symObjAddr: 0x9B8, symBinAddr: 0x1000010F8, symSize: 0x18 }
  - { offset: 0x1E6DF, size: 0x8, addend: 0x0, symName: __ZNSt15__new_allocatorINSt8__detail10_Hash_nodeISt4pairIKNSt7__cxx1112basic_stringIcSt11char_traitsIcESaIcEEESt6vectorIiSaIiEEELb1EEEED2Ev, symObjAddr: 0x9A4, symBinAddr: 0x1000010E4, symSize: 0x14 }
  - { offset: 0x1E71B, size: 0x8, addend: 0x0, symName: __ZNSt7__cxx1112basic_stringIcSt11char_traitsIcESaIcEE10_M_destroyEm, symObjAddr: 0x940, symBinAddr: 0x100001080, symSize: 0x64 }
  - { offset: 0x1E78C, size: 0x8, addend: 0x0, symName: __ZNKSt7__cxx1112basic_stringIcSt11char_traitsIcESaIcEE16_M_get_allocatorEv, symObjAddr: 0x92C, symBinAddr: 0x10000106C, symSize: 0x14 }
  - { offset: 0x1E7D0, size: 0x8, addend: 0x0, symName: __ZNSt15__new_allocatorIcED2Ev, symObjAddr: 0x918, symBinAddr: 0x100001058, symSize: 0x14 }
  - { offset: 0x1E80C, size: 0x8, addend: 0x0, symName: __ZNKSt7__cxx1112basic_stringIcSt11char_traitsIcESaIcEE4sizeEv, symObjAddr: 0x8C8, symBinAddr: 0x100001008, symSize: 0x50 }
  - { offset: 0x1E847, size: 0x8, addend: 0x0, symName: __ZNSt7__cxx1112basic_stringIcSt11char_traitsIcESaIcEE9_M_lengthEm, symObjAddr: 0x8A4, symBinAddr: 0x100000FE4, symSize: 0x24 }
  - { offset: 0x1E881, size: 0x8, addend: 0x0, symName: __ZNKSt7__cxx1112basic_stringIcSt11char_traitsIcESaIcEE11_M_is_localEv, symObjAddr: 0x83C, symBinAddr: 0x100000F7C, symSize: 0x68 }
  - { offset: 0x1E8CF, size: 0x8, addend: 0x0, symName: __ZNSt7__cxx1112basic_stringIcSt11char_traitsIcESaIcEE16_M_get_allocatorEv, symObjAddr: 0x828, symBinAddr: 0x100000F68, symSize: 0x14 }
  - { offset: 0x1E8F9, size: 0x8, addend: 0x0, symName: __ZNSt7__cxx1112basic_stringIcSt11char_traitsIcESaIcEE10_M_disposeEv, symObjAddr: 0x7E0, symBinAddr: 0x100000F20, symSize: 0x48 }
  - { offset: 0x1E923, size: 0x8, addend: 0x0, symName: __ZNSt7__cxx1112basic_stringIcSt11char_traitsIcESaIcEE13_M_set_lengthEm, symObjAddr: 0x798, symBinAddr: 0x100000ED8, symSize: 0x48 }
  - { offset: 0x1E9A8, size: 0x8, addend: 0x0, symName: __ZNSt7__cxx1112basic_stringIcSt11char_traitsIcESaIcEE12_Alloc_hiderC1EPcOS3_, symObjAddr: 0x740, symBinAddr: 0x100000E80, symSize: 0x58 }
  - { offset: 0x1EA5C, size: 0x8, addend: 0x0, symName: __ZNSt7__cxx1112basic_stringIcSt11char_traitsIcESaIcEE13_M_local_dataEv, symObjAddr: 0x720, symBinAddr: 0x100000E60, symSize: 0x20 }
  - { offset: 0x1EA86, size: 0x8, addend: 0x0, symName: __ZNKSt7__cxx1112basic_stringIcSt11char_traitsIcESaIcEE7_M_dataEv, symObjAddr: 0x708, symBinAddr: 0x100000E48, symSize: 0x18 }
  - { offset: 0x1EACA, size: 0x8, addend: 0x0, symName: __ZNSt6vectorIiSaIiEED1Ev, symObjAddr: 0x6AC, symBinAddr: 0x100000DEC, symSize: 0x5C }
  - { offset: 0x1EB40, size: 0x8, addend: 0x0, symName: __ZNSt12_Vector_baseIiSaIiEED2Ev, symObjAddr: 0x65C, symBinAddr: 0x100000D9C, symSize: 0x50 }
  - { offset: 0x1EB78, size: 0x8, addend: 0x0, symName: __ZSt5countIN9__gnu_cxx17__normal_iteratorIPcNSt7__cxx1112basic_stringIcSt11char_traitsIcESaIcEEEEEcENSt15iterator_traitsIT_E15difference_typeESB_SB_RKT0_, symObjAddr: 0x628, symBinAddr: 0x100000D68, symSize: 0x34 }
  - { offset: 0x1EBDA, size: 0x8, addend: 0x0, symName: __ZNSt7__cxx1112basic_stringIcSt11char_traitsIcESaIcEE3endEv, symObjAddr: 0x5E0, symBinAddr: 0x100000D20, symSize: 0x48 }
  - { offset: 0x1EC2B, size: 0x8, addend: 0x0, symName: __ZNSt7__cxx1112basic_stringIcSt11char_traitsIcESaIcEE5beginEv, symObjAddr: 0x5B0, symBinAddr: 0x100000CF0, symSize: 0x30 }
  - { offset: 0x1EC96, size: 0x8, addend: 0x0, symName: __ZNSt10_HashtableINSt7__cxx1112basic_stringIcSt11char_traitsIcESaIcEEESt4pairIKS5_St6vectorIiSaIiEEESaISB_ENSt8__detail10_Select1stESt8equal_toIS5_ESt4hashIS5_ENSD_18_Mod_range_hashingENSD_20_Default_ranged_hashENSD_20_Prime_rehash_policyENSD_17_Hashtable_traitsILb1ELb0ELb1EEEED1Ev, symObjAddr: 0x574, symBinAddr: 0x100000CB4, symSize: 0x3C }
  - { offset: 0x1ED2E, size: 0x8, addend: 0x0, symName: __ZNSt7__cxx1112basic_stringIcSt11char_traitsIcESaIcEED1Ev, symObjAddr: 0x54C, symBinAddr: 0x100000C8C, symSize: 0x28 }
  - { offset: 0x1ED6E, size: 0x8, addend: 0x0, symName: __ZNSt7__cxx1112basic_stringIcSt11char_traitsIcESaIcEEC1Ev, symObjAddr: 0x4D8, symBinAddr: 0x100000C18, symSize: 0x74 }
  - { offset: 0x1EE3A, size: 0x8, addend: 0x0, symName: __ZNSt7__cxx1112basic_stringIcSt11char_traitsIcESaIcEE12_Alloc_hiderD1Ev, symObjAddr: 0x4AC, symBinAddr: 0x100000BEC, symSize: 0x2C }
  - { offset: 0x1EE86, size: 0x8, addend: 0x0, symName: _main, symObjAddr: 0x428, symBinAddr: 0x100000B68, symSize: 0x84 }
  - { offset: 0x1EEB6, size: 0x8, addend: 0x0, symName: __Z5solvev, symObjAddr: 0x230, symBinAddr: 0x100000970, symSize: 0x1F8 }
  - { offset: 0x1F01E, size: 0x8, addend: 0x0, symName: __ZNSt12_Vector_baseIiSaIiEE12_Vector_implD1Ev, symObjAddr: 0x204, symBinAddr: 0x100000944, symSize: 0x2C }
  - { offset: 0x1F084, size: 0x8, addend: 0x0, symName: __ZNSt13unordered_mapINSt7__cxx1112basic_stringIcSt11char_traitsIcESaIcEEESt6vectorIiSaIiEESt4hashIS5_ESt8equal_toIS5_ESaISt4pairIKS5_S8_EEED1Ev, symObjAddr: 0x1E4, symBinAddr: 0x100000924, symSize: 0x20 }
  - { offset: 0x1F0C4, size: 0x8, addend: 0x0, symName: __ZNSt13unordered_mapINSt7__cxx1112basic_stringIcSt11char_traitsIcESaIcEEESt6vectorIiSaIiEESt4hashIS5_ESt8equal_toIS5_ESaISt4pairIKS5_S8_EEEC1Ev, symObjAddr: 0x1C4, symBinAddr: 0x100000904, symSize: 0x20 }
  - { offset: 0x1F104, size: 0x8, addend: 0x0, symName: __ZNSt10_HashtableINSt7__cxx1112basic_stringIcSt11char_traitsIcESaIcEEESt4pairIKS5_St6vectorIiSaIiEEESaISB_ENSt8__detail10_Select1stESt8equal_toIS5_ESt4hashIS5_ENSD_18_Mod_range_hashingENSD_20_Default_ranged_hashENSD_20_Prime_rehash_policyENSD_17_Hashtable_traitsILb1ELb0ELb1EEEEC1Ev, symObjAddr: 0x154, symBinAddr: 0x100000894, symSize: 0x70 }
  - { offset: 0x1F148, size: 0x8, addend: 0x0, symName: __ZNSt8__detail16_Hashtable_allocISaINS_10_Hash_nodeISt4pairIKNSt7__cxx1112basic_stringIcSt11char_traitsIcESaIcEEESt6vectorIiSaIiEEELb1EEEEED2Ev, symObjAddr: 0x134, symBinAddr: 0x100000874, symSize: 0x20 }
  - { offset: 0x1F188, size: 0x8, addend: 0x0, symName: __ZNSt8__detail16_Hashtable_allocISaINS_10_Hash_nodeISt4pairIKNSt7__cxx1112basic_stringIcSt11char_traitsIcESaIcEEESt6vectorIiSaIiEEELb1EEEEEC2Ev, symObjAddr: 0x108, symBinAddr: 0x100000848, symSize: 0x2C }
  - { offset: 0x1F21E, size: 0x8, addend: 0x0, symName: __ZNSt8__detail21_Hashtable_ebo_helperISaINS_10_Hash_nodeISt4pairIKNSt7__cxx1112basic_stringIcSt11char_traitsIcESaIcEEESt6vectorIiSaIiEEELb1EEEELb1EED1Ev, symObjAddr: 0xDC, symBinAddr: 0x10000081C, symSize: 0x2C }
  - { offset: 0x1F282, size: 0x8, addend: 0x0, symName: __ZNSt8__detail15_Hashtable_baseINSt7__cxx1112basic_stringIcSt11char_traitsIcESaIcEEESt4pairIKS6_St6vectorIiSaIiEEENS_10_Select1stESt8equal_toIS6_ESt4hashIS6_ENS_18_Mod_range_hashingENS_20_Default_ranged_hashENS_17_Hashtable_traitsILb1ELb0ELb1EEEEC2Ev, symObjAddr: 0xBC, symBinAddr: 0x1000007FC, symSize: 0x20 }
  - { offset: 0x1F2C2, size: 0x8, addend: 0x0, symName: __ZNSt8__detail15_Hash_code_baseINSt7__cxx1112basic_stringIcSt11char_traitsIcESaIcEEESt4pairIKS6_St6vectorIiSaIiEEENS_10_Select1stESt4hashIS6_ENS_18_Mod_range_hashingENS_20_Default_ranged_hashELb1EEC2Ev, symObjAddr: 0xA8, symBinAddr: 0x1000007E8, symSize: 0x14 }
  - { offset: 0x1F2E4, size: 0x8, addend: 0x0, symName: __ZSt3minImERKT_S2_S2_, symObjAddr: 0x70, symBinAddr: 0x1000007B0, symSize: 0x38 }
  - { offset: 0x1F352, size: 0x8, addend: 0x0, symName: __ZNSt8__detail20_Prime_rehash_policyC1Ef, symObjAddr: 0x44, symBinAddr: 0x100000784, symSize: 0x2C }
  - { offset: 0x1F39B, size: 0x8, addend: 0x0, symName: __ZNSt8__detail15_Hash_node_baseC1Ev, symObjAddr: 0x28, symBinAddr: 0x100000768, symSize: 0x1C }
  - { offset: 0x1F3BD, size: 0x8, addend: 0x0, symName: __ZNSt11char_traitsIcE6assignERcRKc, symObjAddr: 0x0, symBinAddr: 0x100000740, symSize: 0x28 }
...
